a43cbfabc Progress on TCKs
f210ad7d2 Progress towards TCK
6838ece23 Progress on TCK
f10812232 Progress on TCKs
23d59e626 Remove incorrect level of class indirection in several places.
f716ac319 Progress on TCKs
c5c5fc0f8 Merge branch 'cc_xcodes_explore' of https://github.com/xtclang/xvm into cc_xcodes_explore
0e1900ba4 The funky-dispatch calls got a missing, required, initial type parm.
942f3525b Progress on TCK
48bd10bb3 First pass TCKs
b69c9ae1b Hit by lack of XTC ISA test
c7be1443f Handle new BAST after rebase
0dc524548 Update Makefile
ff8935135 Drop KID for GOLD
7f6ae6e95 Missed one
c8dcfc529 Updates post rebase; all tests pass
580896046 Swap to a sentinal Never for no-args constructor.
fb180d9d3 Started implementing Hasher/Hashable
4258f19b6 Handle default compare, same as equals
3e7716865 Yet Another Major Refactor
584b8b0e1 Handle class inheritance; construct has to call super() first.
f5dc3fce6 A real cross-module call
e969b4599 Rename
679cfc12b Gen imports
0b14bdf30 Move value_tcon to its own file
60b7ebeff Major restructure part#2
512352270 Restructure.
97cc45718 Const classes get a toString
cf09d2acc Move project from javatools/.../cc_explore to javatools_backend/...
519cf751a more separation between XTC modules and XTC classes.
228a6df28 Yet One More Variant of Switch
13c71b8ba Const class set throws ReadOnly
a9efa3880 No set methods on Const classes
a6388bb7d Handle a Const class
a3cd9b3db Rebase fixup
ee10b5d99 Handle currying functions
c27079278 Change types from Strings to XType
44e575328 Progress towards testChars
90e43d3c4 First cut try/catch
42a6b344b more assign ops
555328eaf StmtExpr
3ba95e9c7 Conditions!
b69630071 Another elvis test
69b25b65a Support elvis operator
f13da7f6c Progress on TestMisc.x
def56f9ab Fix count down ranges
61643ce56 Punt on continue in the middle of a case, vs the end
91e0fdb28 turn on a few more tests
7864da6a1 Handle spaceship for ints
8f518e61d A few more switch variants
cf44ef279 Progress on misc tests
d139a45d1 Yank tvars
15a95cf9e Handle lazy props
214121d80 Progress on tuples
73d87d403 More tuple support
487146b3c Change tuple mutability
ec9f2ad39 Handle dynamic tuples
b0dd9833b Progress towards tuples
b8c43df48 Drop the X
17615d6c8 InvokeAST takes a generic LHS not a register
253d943f3 make builds examples and manual tests
5771c4283 rebase, drop unused TODOAST
6790b4a49 Permute runs
134bff662 Split byte AST reading from AST constructors
ca3c3dfb2 1/2 flip to a new (old) binary parser
4d276b4eb Progress towards handling XTC lambdas
90f7b10d8 Progress towards Permutations
56493f9d5 Progress Permutations.x
8cc004d34 Progress on Permutations.x, compiles now, missing for loops
f0e0a6f82 Progress on Permutation.x
7c65770b0 Progress on AST towards Permute.x
63067b85d Buncha new AST nodes
a8b0b0796 Run HelloWorld
276d661b8 Handle more AST
c80f54480 A little AST restructure
532a705b3 comment
645f05b26 Rebuild examples when XTC compiler changes
bb4c8ecda Initial cut AST parser
f28736028 Fix minor constant dependencies that changed
9d2389ee7 Minor cleanup
ab01650f4 All the ops for Permutation's main method
90231f7c5 Compile and run FizzBuzz
3677ab4d2 Add auto-gen imports
54ef17f32 First cut FizzBuzz code
6eecf77bc Pretty-print FizzBuzz
75b934762 A few more opcodes
d7bc47cc2 Partial handle VAR_DN opcode
52def478a Handle generic type parms better.  Links all constants in all libs
8b26f467e More signature matching shenanigans
4a0cc8a41 Fix ints after rebase from master
8b5ab8602 First cut TypeInfo stuff
56934305b Progress on TypeInfo
3977e27fd More TypeInfo
0d0b3b598 Comments
2519db90f Turn on a few missed link steps
73321deeb Get thru linking & some (not all) TypeInfo
c1228b450 Handle mixins with generified types
b625828e3 Staring at my 1st real mixin
3947782c4 Up to typing Immutable
b365bdcc1 Better thinking on interfaces
55934ff58 Parts link, Types setype, Values are yet to be done.
9ec811bd6 Drop XType, add NBHML, TVar.
5539c76f3 Handling multiple methods under a MultiMethod
6d7c1fe36 Add a XType above ClassPart and PropPart;
f45499d34 Wrap up initial parsing.  Start on a naive java class file
6d5f4f60f Child lookup must link.
1a534c35f Yank generic type
5a9541ab4 Progress on parsing FizzBuzz
625485cf0 Progress on linking
10d3e4961 Restructure while its cheap
49ef5ee4e Remove all transient fields after resolution
77b0aee53 Clean/restructure building XClz java clazz wrapper
2c497b30a Start building Container notions
5e78521b3 Link the repo
c84d62537 Actually load all provided libs
10ea25fdf Cleanup
aa5f4c505 Load all provided libs
267a59d50 Finish repo setup
340f2dbfa Cleanup
af1a3cf1a All the XTC in XDK parses constant pool
fdd2692ce All the manualTests XTC files
e4175bded Parses TestAnnotations
503965745 Parse TestArray
f7bbf984c Parse constant pool of TestNumbers
8bd6923fe Cleanup extra v-calls
5a1f506fd Parse ConstantPool of TestLiteral.x
ec7255431 Parses FizzBuzz.xtc
f77141171 Parse a Module OK
ecb7c16d5 Rename Component -> Part
44d32e164 Progress towards a XEC parser
03337a417 Finish loading FizzBuzz constant pool
945a01be8 Finish renaming all const files to con
36dcc024b Bulk rename files
adeae913f Progress on a XEC constant pool reader
a1fc429ef initial makefile
e78d17bb4 Revamp equals,compare,hashCode handling
b00e23b25 Started implementing Hasher/Hashable
b29c1639d More special handling of equals,compare
25964581a Handle default compare, same as equals
68ab9f2b3 Progress towards TestModIFace
9424b1b2b Yet Another Major Refactor
4f9b131de Handle class inheritance; construct has to call super() first.
f3f360c5c A real cross-module call
1af9acd2e Rename
221a63948 Gen imports
347fa424e Move value_tcon to its own file
217f280bd Major restructure part#2
2b29909b2 Restructure.
b797abd94 Const classes get a toString
806ad9907 Move project from javatools/.../cc_explore to javatools_backend/...
1983f41a2 more separation between XTC modules and XTC classes.
42c0951a8 Yet One More Variant of Switch
eb056dda8 Const class set throws ReadOnly
a3a46ae57 No set methods on Const classes
9f8249698 Handle a Const class
aea9b807e Rebase fixup
aff73d266 Handle currying functions
631f110ae Change types from Strings to XType
fabfc0feb Progress towards testChars
3db031f76 First cut try/catch
e20332abe more assign ops
71feaf31a StmtExpr
0dbd895ff Conditions!
3c3becc1c Another elvis test
911a31f6c Support elvis operator
eb7854230 Progress on TestMisc.x
d55205208 Fix count down ranges
237962364 Punt on continue in the middle of a case, vs the end
a8217245c turn on a few more tests
50b658122 Handle spaceship for ints
bbf2ada5c A few more switch variants
828be8e6d Progress on misc tests
4924c9eaf Yank tvars
1d3ff8098 Handle lazy props
a7d78e39a Progress on tuples
5d5790ee3 More tuple support
f54aee83e Change tuple mutability
fa5d283c5 Handle dynamic tuples
ba6b316ad Progress towards tuples
f2a798764 Drop the X
fae1cec37 InvokeAST takes a generic LHS not a register
ab5abaa84 make builds examples and manual tests
604b161b2 rebase, drop unused TODOAST
2e3e0cf95 Permute runs
1389f1352 Split byte AST reading from AST constructors
61d8496ad 1/2 flip to a new (old) binary parser
60e39d340 Progress towards handling XTC lambdas
466a5a393 Progress towards Permutations
bdddcdc38 Progress Permutations.x
63aa9b0e3 Progress on Permutations.x, compiles now, missing for loops
6efed110e Progress on Permutation.x
17bef7fac Progress on AST towards Permute.x
d07923718 Buncha new AST nodes
d29a12f82 Run HelloWorld
ec74f13a1 Handle more AST
88bbaaed7 A little AST restructure
7bf1be591 comment
f3497dc90 Rebuild examples when XTC compiler changes
6760eb2ef Initial cut AST parser
ef3b1e7e9 Fix minor constant dependencies that changed
c2e24aff3 Minor cleanup
2791fae89 All the ops for Permutation's main method
201f02693 Compile and run FizzBuzz
ee3f3fd5c Add auto-gen imports
ea1bf23c3 First cut FizzBuzz code
18648df2e Pretty-print FizzBuzz
94a60df91 A few more opcodes
7c7e54a2e Partial handle VAR_DN opcode
55ece20a8 Handle generic type parms better.  Links all constants in all libs
85c3d7020 More signature matching shenanigans
f9592406d Fix ints after rebase from master
a4fa954f5 First cut TypeInfo stuff
97ca544c5 Progress on TypeInfo
7fdf88143 More TypeInfo
fbaeea469 Comments
734915023 Turn on a few missed link steps
bf5a354dc Get thru linking & some (not all) TypeInfo
db2a29713 Handle mixins with generified types
e41723609 Staring at my 1st real mixin
5ea89f00b Up to typing Immutable
8fc8ef365 Better thinking on interfaces
80f3809ea Parts link, Types setype, Values are yet to be done.
c9314efd3 Drop XType, add NBHML, TVar.
eef932a40 Handling multiple methods under a MultiMethod
8fc492f3b Add a XType above ClassPart and PropPart;
d8b09251f Wrap up initial parsing.  Start on a naive java class file
fd89276e3 Child lookup must link.
efec460c4 Yank generic type
a581de9ff Progress on parsing FizzBuzz
76bb50670 Progress on linking
3e3b2da74 Restructure while its cheap
3840b3823 Remove all transient fields after resolution
150df5802 Clean/restructure building XClz java clazz wrapper
8a37bbb0a Start building Container notions
cc1711816 Link the repo
fa29c8e90 Actually load all provided libs
adb2ee5f9 Cleanup
579fcf9d1 Load all provided libs
57233265b Finish repo setup
648d8f86f Cleanup
b70b90191 All the XTC in XDK parses constant pool
4170e90a5 All the manualTests XTC files
491544f81 Parses TestAnnotations
04af4e4ae Parse TestArray
a8c632dc0 Parse constant pool of TestNumbers
ea3680a83 Cleanup extra v-calls
53427bbf3 Parse ConstantPool of TestLiteral.x
c54310e64 Parses FizzBuzz.xtc
9fee643de Parse a Module OK
feb89d38c Rename Component -> Part
4f8e27ae2 Progress towards a XEC parser
3749c9f46 Finish loading FizzBuzz constant pool
ec2239bf1 Finish renaming all const files to con
65ca768b7 Bulk rename files
433a673af Progress on a XEC constant pool reader
8c6ea98b1 initial makefile
1b31e5e2e Fix BAST production for CmpExpression (take 2)
c9d56d64c Progress on TCK
d7af2cc8c First pass TCKs
9d9de6a46 Hit by lack of XTC ISA test
1197e326f Handle new BAST after rebase
f1fadac0a Update Makefile
d593cf679 Drop KID for GOLD
73af6d49b Missed one
bc10badba Updates post rebase; all tests pass
ddcbf9f2d Swap to a sentinal Never for no-args constructor.
ec7e03f46 Started implementing Hasher/Hashable
4cfa18bd6 Handle default compare, same as equals
c5154f5e4 Yet Another Major Refactor
fb519fc90 Handle class inheritance; construct has to call super() first.
995780897 A real cross-module call
db7870940 Rename
87954dd9e Gen imports
f73ef339d Move value_tcon to its own file
d4106432d Major restructure part#2
8b746ba1e Restructure.
4c8f1246f Const classes get a toString
1143cd70f Move project from javatools/.../cc_explore to javatools_backend/...
3998ef0c7 more separation between XTC modules and XTC classes.
5eaadef40 Yet One More Variant of Switch
dd32cd4ea Const class set throws ReadOnly
069f6ffb2 No set methods on Const classes
d238302c9 Handle a Const class
bb4d19ea1 Rebase fixup
082940878 Handle currying functions
e007f00f6 Change types from Strings to XType
2934ed6a5 Progress towards testChars
34433acfb First cut try/catch
f2c12375c more assign ops
ce54c164c StmtExpr
4328d27ca Conditions!
329ea72b3 Another elvis test
5f9312351 Support elvis operator
5415a8f14 Progress on TestMisc.x
e3baccc43 Fix count down ranges
075682458 Punt on continue in the middle of a case, vs the end
457ec534f turn on a few more tests
2a10f3bdd Handle spaceship for ints
1e0e66e69 A few more switch variants
31d5436c2 Progress on misc tests
15e4a4f41 Yank tvars
da424c645 Handle lazy props
8ba08a78b Progress on tuples
ad89e90b0 More tuple support
c9467085b Change tuple mutability
14a9b548b Handle dynamic tuples
e111552d4 Progress towards tuples
a5707b96a Drop the X
d3b568a83 InvokeAST takes a generic LHS not a register
48b1743bc make builds examples and manual tests
92e338147 rebase, drop unused TODOAST
2f48a2bcf Permute runs
7c77639fa Split byte AST reading from AST constructors
653ae9b95 1/2 flip to a new (old) binary parser
f7e15a9d2 Progress towards handling XTC lambdas
f3ff69c3a Progress towards Permutations
f118deca5 Progress Permutations.x
f76095553 Progress on Permutations.x, compiles now, missing for loops
a50c22aec Progress on Permutation.x
f6f2acd8f Progress on AST towards Permute.x
021dfc550 Buncha new AST nodes
542ef7218 Run HelloWorld
1c76237b2 Handle more AST
be812e6bd A little AST restructure
846077089 comment
4b7882bbc Rebuild examples when XTC compiler changes
8328868f8 Initial cut AST parser
c8d752540 Fix minor constant dependencies that changed
7c7a05765 Minor cleanup
ac1823925 All the ops for Permutation's main method
b0f9da284 Compile and run FizzBuzz
606aa9034 Add auto-gen imports
062aa3b06 First cut FizzBuzz code
2bdba152e Pretty-print FizzBuzz
e8a033cf2 A few more opcodes
9e089a00c Partial handle VAR_DN opcode
769f8eca0 Handle generic type parms better.  Links all constants in all libs
a264472a6 More signature matching shenanigans
4440615fb Fix ints after rebase from master
264283ecc First cut TypeInfo stuff
30bf2f9ef Progress on TypeInfo
9c013bd66 More TypeInfo
e90ab71c0 Comments
04156eeb2 Turn on a few missed link steps
956c9ff24 Get thru linking & some (not all) TypeInfo
c144a8c28 Handle mixins with generified types
e7310a096 Staring at my 1st real mixin
dbc541a55 Up to typing Immutable
fa4ddf037 Better thinking on interfaces
64a20559d Parts link, Types setype, Values are yet to be done.
8fcd2c417 Drop XType, add NBHML, TVar.
ca00f4fd2 Handling multiple methods under a MultiMethod
afede97d4 Add a XType above ClassPart and PropPart;
c1d269ad2 Wrap up initial parsing.  Start on a naive java class file
643f5b530 Child lookup must link.
e3f6b8565 Yank generic type
51fab00aa Progress on parsing FizzBuzz
fd1ee8321 Progress on linking
8dad68f4c Restructure while its cheap
31317e7ea Remove all transient fields after resolution
99bde4207 Clean/restructure building XClz java clazz wrapper
46dfe494c Start building Container notions
a5fb540a6 Link the repo
f0b280d75 Actually load all provided libs
598dab4ab Cleanup
977e3b8ff Load all provided libs
b8f88b957 Finish repo setup
97881c55a Cleanup
2d32b9f8a All the XTC in XDK parses constant pool
a7f2ee040 All the manualTests XTC files
505c4295a Parses TestAnnotations
6ab7341d4 Parse TestArray
c94ce0fde Parse constant pool of TestNumbers
b1e85686d Cleanup extra v-calls
65616bf34 Parse ConstantPool of TestLiteral.x
b9b19993f Parses FizzBuzz.xtc
86cc70696 Parse a Module OK
dae172e76 Rename Component -> Part
9cf7545ad Progress towards a XEC parser
20bf67650 Finish loading FizzBuzz constant pool
154dbce11 Finish renaming all const files to con
1fbb4c4af Bulk rename files
e5d0acf40 Progress on a XEC constant pool reader
3b8ebf5bb initial makefile
97cc25cfa Revamp equals,compare,hashCode handling
7a0f2ab7b Started implementing Hasher/Hashable
571cd0bfd More special handling of equals,compare
4aa5f72d7 Handle default compare, same as equals
e8d3aad4b Progress towards TestModIFace
1a38e8987 Yet Another Major Refactor
f86200a87 Handle class inheritance; construct has to call super() first.
e51561534 A real cross-module call
19221a194 Rename
54b8229f7 Gen imports
4c1e583ce Move value_tcon to its own file
e4ae79fa0 Major restructure part#2
ba581b246 Restructure.
1aa6f4c17 Const classes get a toString
cfdbacd69 Move project from javatools/.../cc_explore to javatools_backend/...
c501277e8 more separation between XTC modules and XTC classes.
3638e6536 Yet One More Variant of Switch
d2861088c Const class set throws ReadOnly
6d1b30574 No set methods on Const classes
30856c29a Handle a Const class
cd2f11306 Rebase fixup
6b8d4751f Handle currying functions
ae3ba1a28 Change types from Strings to XType
f204e294f Progress towards testChars
aff4efe31 First cut try/catch
eb15c21f0 more assign ops
813d039b2 StmtExpr
4c227e46b Conditions!
32e03a88e Another elvis test
796414599 Support elvis operator
75fb1b777 Progress on TestMisc.x
64c765237 Fix count down ranges
9c1b5321e Punt on continue in the middle of a case, vs the end
2a6d4dc42 turn on a few more tests
4265384e9 Handle spaceship for ints
1a0ed3704 A few more switch variants
9707e4ffe Progress on misc tests
3a60e6711 Yank tvars
e785a34c5 Handle lazy props
32198dc93 Progress on tuples
796980e72 More tuple support
0d3422c7e Change tuple mutability
f92b6b2ac Handle dynamic tuples
da6e7e3f8 Progress towards tuples
03f114500 Drop the X
8b4b92838 InvokeAST takes a generic LHS not a register
24a7c5034 make builds examples and manual tests
3a1ba0924 rebase, drop unused TODOAST
53138dfa9 Permute runs
098be2830 Split byte AST reading from AST constructors
a57a62129 1/2 flip to a new (old) binary parser
c42a3cd6f Progress towards handling XTC lambdas
4962fae9e Progress towards Permutations
64be7ff8c Progress Permutations.x
5d2ced46e Progress on Permutations.x, compiles now, missing for loops
01b64f195 Progress on Permutation.x
674b62970 Progress on AST towards Permute.x
f8f15d68d Buncha new AST nodes
e7f3ee8d3 Run HelloWorld
e5bea2841 Handle more AST
20032b7a4 A little AST restructure
325887f88 comment
5783806bf Rebuild examples when XTC compiler changes
e5a87efff Initial cut AST parser
3939d5e89 Fix minor constant dependencies that changed
ef0fc0aa4 Minor cleanup
2a7f8941a All the ops for Permutation's main method
702a16586 Compile and run FizzBuzz
21747b832 Add auto-gen imports
6c2a70ee4 First cut FizzBuzz code
877f1df48 Pretty-print FizzBuzz
516fd82e5 A few more opcodes
27c1f0658 Partial handle VAR_DN opcode
ed42bc83f Handle generic type parms better.  Links all constants in all libs
8691e3eeb More signature matching shenanigans
b92f2b643 Fix ints after rebase from master
8e55171d6 First cut TypeInfo stuff
250c44ec8 Progress on TypeInfo
3a93485e0 More TypeInfo
f5e5a462a Comments
8dc194f85 Turn on a few missed link steps
05e5902ac Get thru linking & some (not all) TypeInfo
ba84ddaa9 Handle mixins with generified types
52f071466 Staring at my 1st real mixin
9abd6275f Up to typing Immutable
e39715462 Better thinking on interfaces
29ec7cb6d Parts link, Types setype, Values are yet to be done.
4c558af7d Drop XType, add NBHML, TVar.
6f8f9a5c4 Handling multiple methods under a MultiMethod
e9b750ec2 Add a XType above ClassPart and PropPart;
57a694930 Wrap up initial parsing.  Start on a naive java class file
03576e042 Child lookup must link.
3b533017e Yank generic type
4ccc54a39 Progress on parsing FizzBuzz
c281ef0be Progress on linking
68ed3f80a Restructure while its cheap
d32c5fd6c Remove all transient fields after resolution
c85bb4a82 Clean/restructure building XClz java clazz wrapper
608707385 Start building Container notions
26a76f677 Link the repo
f05137aac Actually load all provided libs
c202f4eb7 Cleanup
760b90c8f Load all provided libs
91a0c9ffb Finish repo setup
2f71318b4 Cleanup
5c50ea3bb All the XTC in XDK parses constant pool
b4398eb94 All the manualTests XTC files
5db28ff13 Parses TestAnnotations
a6f190214 Parse TestArray
74699b4df Parse constant pool of TestNumbers
3080efc4f Cleanup extra v-calls
0a309ba63 Parse ConstantPool of TestLiteral.x
92e757705 Parses FizzBuzz.xtc
2daf0d110 Parse a Module OK
e1b107038 Rename Component -> Part
dbfa55fcd Progress towards a XEC parser
c47bd3a4c Finish loading FizzBuzz constant pool
81f527eae Finish renaming all const files to con
0369c077e Bulk rename files
80406ecfa Progress on a XEC constant pool reader
45b2ce3bb initial makefile
3467c078b Fix BAST production for CmpExpression
b9242ede0 Add the compiler check for overriding methods missing a required parameter default value
1f9b50bfc Final repo init.d change. Should be available from HTTPS.
06b1098f3 Ignore repetitive Catalog.close() calls
634d3fe5b Print the natural stack upon an internal VM error
f7f6708ff Updated plugin resolution syntactic sugar templates, final template.
52478856a Updated plugin resolution syntactic sugar templates.
bfd73717b Fix an NPE in the compiler
479f11103 Fix RelationalTypeConstant.compareDetails()
08dce378c Fix cross-container leaks
6478f7760 Added first step of token-less GitHub Maven package bootstrap.  Merge early. (#105)
c37aca79d Fix the tests
f3efe99a3 Trivial reformatting
7293a8ff5 Add safe/read-only packages configuration for bootstrapping XTC artifacts.
cea26e774 Parameterize the web module generator
00a9064fa Validate the user even if they have no roles (#104)
f679ab8e9 Add the "tlsKey" to the HttpServer API; remove the "hostName"
d18db37fc Add comparison and hash tests
44e467591 Replace a compiler exception with an error message
d66863b44 Reset the "left" type for the Bjarn-transformation
3c2ef18b9 Mark "equals", "compare" and "hashCode" for all Number classes as native
392e5d350 Fix a typo
1ccd32dea Add function id to the CmpChainExprAst (clean build required)
93f5399d8 Add doc to Path.x on path literals, and allow type inference for String and Byte[] for files
88b465058 Get rid of the System.exit() calls
66471eb6c Simplify the BAST production for CmpExpression
2f3aa3952 Reorder the BAST nodes based on the use statistics
053513ab9 Replace BiExprAST production for equality and comparison with CallExprAst
257c34367 Refactor deprecated APIs
bccead6ac Minor doc fixes to the previous doc fixes
2351656bb Minor doc fixes and improvements
e11c6f69f Updates to command line tool names
fce5f5827 Trivial refactoring
f30a9d528 Allow Console to be overridden for command line tools
352c5e519 Minor doc improvement
81e31d9f2 Introduce a CertificateManagement API
a6fe25cf8 Minor clean up
60e8acca9 Add lambda operator to BNF precedence table
683ad2364 Minor clean up of warnings
a766770a0 Fix Java implementation of semver parsing, which would always error on the optional build string
a3e5cff79 Improve error handling and error messages
e0ea1c9aa Make the "xec" command more tolerant
5feac4a7d Allow "import" statements to occur before a module declaration, by silently moving them immediately inside the module declaration
76dad6330 Fix for two errors: (1) an off by one bug
c34d4b5a1 Minor clean-ups
096147a93 Fix issue where xec internally invokes the compiler and passes too many command line args
0be60655e Remove suckiness from command line logic
a461b01b7 Add a default value support for BodyParams
86c6567a7 Fix an NPE at runtime for conditional Tuple crossing the service boundaries
3657a05c6 Fix the description of the "-version" option
bc12c22ce Make changes suggested by the IDEA [new version] code analysis
933840f9f Minor updates from code review of previously committed changes
5cb80c661 Add missing semicolon.
1e5bf9d14 Fix Java warnings, round 2.
e1337c2b2 Improve error reporting for missing resources
1e747b27a Remove unnecessary parentheses
715fe18e1 Add a doc.
4c269af50 Add a trivial multi-module test for xcc
86ddb342a Optimize resources timestamp calculation
56cb728dd Move manual test resources into the correct location and fix some tests
df34d7567 Remove dead code
a04617d82 Improve error messages (minor)
0e89ff5be Replaced raw Collections.EMPTY_LIST with preferred Collections.emptyList() (#98)
47c5f0f17 Correctly infer types from paths (fix to a regression)
fc5864fd9 Allow keywords in paths and file names
d1d4a31bb Fix NPE
64732e258 Bjarne strikes again
de02c6319 Add Java version check
8afd48c86 Fix an assertion
185c6919c Fix a typo and trivial reformatting
2b9bf394b Update the internal todo-list
7347cdb28 Minor edits (formatting, removing redundant parentheses)
b85c07f0f Fix an NPE
5367691b7 Do not throw away the compiler error list
9798679a2 This is the second part of the tooling change to support e.g. multiple resource directories, and to provide a better foundation for supporting e.g. Gradle. None of these changes are intended to be breaking changes (unlike some changes included in the first part).
eebaef1c7 Exclude abstract classes (WebService or Session) from inclusion into the catalog
d687266ea Add FormURL media type support
c83a8ce75 Fix the code generation at ForEachStatement
3a0e07b2d Fix the build
60648d809 Fix module linking bug
a49c494c1 Add empty property to Interval
b47a821dd Fix Range instantiation bug for Enum values
6b8fac881 Fix an assertion in BAST production
c72951e79 Fix BAST production for unreacheable "for" and "while" blocks
e150eb07c Fix a typo
c98e1ec5d Add "getClientHostName" method
1b89a6dc5 Fix a bug in DigestAuthenticator exposed by the function proxy fix on 10/24/23
aed762d9e Fix an NPE
6f768f13f Fix a  Console issue with Java 21
7ade59e46 Add BAST production for synthetic constructors and methods (requires clean build)
64f58db1e Add BAST production for shorthand constructors (clean build required)
edd2ddd17 Remove the heap size defaults set up by the launcher
a29710889 Fix the ExprAST API implementation for Trace "pass-through"
ead486181 Always proxy a function that is crossing the service line
4d1a99df1 Replace AsyncDelegatingHandle with ProxyHandle
796a2409f Improve ModuleGenerator API
fb202c566 Close HttpServer upon a configuration exception
ddf4b6b9e Improve an error messages
4456f2d43 Improve the error message
af49992e0 Gene and Cam fixes to previous check-in
410907990 Change temporary log messages (trivial)
2102e5d84 Checkpoint on module project support and resource support (stable, but still WIP)
9bb364172 Fix Dec64 consistency issue
dc6445cd8 Fix the compiler assertion
d6f05a50b Fix the scope adjustment issue causing incorrect exception handling
167d85410 Fix code production for converting operations
b22693516 Fix native array handling
dbd00022b Adjust Byte Bit and Nibble Array.toString() to match the Stringable implementations
126fb20e7 Fix an UOE
ab849cba7 Update tck Basic test
331fbe595 Fix a compiler assertion
d342fa7b5 Add the "tck" module outline
219ae2dd2 Fix the "bast" production by the EvalCompiler
9c1400450 Remove the heap limit for "xec" java process
bbdcb8d79 Remove unused methods, fix typos and make trivial refactoring
cb5dfb58c Fix SimpleLog.toString()
4f3e6b2f4 Fix the compiler check for conflicting generic types
e9eb03105 Fix the BAST production for the ReturnStatement
fac3411fc Update auto-generated files for gradle 8.4
a511992ad Fix some typos
367b1b443 Upgrade gradle to 8.4
af2544a58 Update gradlew to match the automatically generated one
4b8e5d9ec Fix a runtime assertion caused by "delegating" of a capped method
c912a69fb Add helper function for simple date/time to string conversion
bd3e027dc Add default args for toString() at Collection API
c7a24a4ba Add a BooleanFormat class
6f78a0aad Simplify Tuple API
d55c2405a Remove unused
356e200aa Fix makeImmutable() implementation for Vars
58a344fb3 Add type inference for isExpression
1416c81a7 Fix the code generation for isExpression
92d186f75 Add "runAppParallel" task
7b6bab19d Fix broken tests
7cba1ca19 Make test outputs more predictable
cbaedcd47 Improve handling of missing json values
3a63e6419 Fix typo
e2998f600 Clarify the doc
d71de2ea6 Add a doc.
2fdbffec4 Implement new Var capturing rules
73fa2d651 Fix some typos and remove unused imports
fd1a33fd6 Fix an assertion in Frame.assignValue()
033fbf2e2 Fix the examples coding style and improve the Permutations.x
2b2e33637 Simplification of BAST project (WIP)
609d2abb2 Implement Tuple serialization
e258f7460 Simplify "runOne" gradle task
8616ee2e7 Simplification of BAST project (WIP)
58f4a1854 Add a natural Orderable implementation for Number
51e3e224f Add a missing bast production for NameExpression
222d9f54c Fix an assertion in lambda compilation
4a308975c Add a default json map test
4e6cee50e Add "bast" production by SwitchStatement
cf2afabbb Remove an obsolete TODO
d411f0aec Improve Map de-serialization logic
5b1ef0b86 Fix a compiler assertion
497c3caf1 Add missing BinaryAST.isAssignable() implementations
0526566dc Fix a couple of comments
07dda27a9 Remove obsolete TODOs
49bb3d287 Generate bast node for assignments with unreachable r-values
1017c3432 Fix TrtFinallyStmtAST serialization
9cb447f29 Simplify ForEachStatement bast production
b027dfbae Add bast generation for ForEachStatement
bc1ebb4b0 Fix bast generation for labelled loops and try-finally
7ea0ecdaa Minor polish
90a124b36 Remove unnecessary labels
f45320334 Fix code production for ForStatement
bfba842b9 Expose Register name
4edbe4550 Fix "bast" production for WhileStatement and FileExpression
e8bda4eca Reorder expression AST ordinals based on the usage histogram
b553d45a1 Add NewExprAST
c0dcd0865 Fix Binary AST generation for MultiLValueStatement
1de25f001 Add For-Each BAST structure
c96629ab6 Add missing Binary AST generation for NameExpression
46c399209 Fix the default ("_,_") validation in CaseManager
2edf53c6f Fix an assertion in SwitchAST
ad468dda2 Update switch expression BAST (2x TODO GG)
fe4fab13e Add "async" info to Callable basts
876c39db7 Fix "bast" production for ReturnStatement
17a812104 Add support for annotated registers (wip)
f92197715 Add scope suppression to StmtBlockAST
7e7468330 Fix LoopStmtAST
ca6f15d90 Update switch expression BAST (TODO case bodies)
3da5b6b6b Fix WhileStmtAST
d19ee25c6 Fix "bast" production for NameExpression
4b85d1a8d Fix "bast" production for LambdaExpression
e42cdab1a Fixes after review
09e7395e7 Restore an assertion for unassigned "bast" registers
989eed81a Fix "bast" production by TemplateExpression
68d7c6141 Fix "bast" production by InvocationExpression
482e73073 Add a missing method in MultuExprAST
d2beaab2a Simplification after review
dec1b4c59 Fix "bast" for anonymous inner classes
294948cf4 Fix a compiler assertion
e67918d75 Add BAST support to IfStatement
e6cc09105 Fix TryStatement
1eafa783d Introduce MultiExprAST
b88de9eb3 Fix Catch and Try statements
19eb8a744 Fix Assignment and MultipleLValue statements
13e55da3f add "if (True)" / "if (False)" BAST support
db21e5623 Fix While, DoWhile and Loop StmtAST
b0b699e87 Clean up items identified in code review
ef0774292 Minor: Move a helper from interface to static method
1e2a91789 Fix register assignment; comment out the "getAST()" test
e2f748498 Add "switch" BAST (still needs integration into AST)
3e8835b96 Remove unused methods
2177fb93a Remove unused ConstantResolver
109952559 Replace Unicode "word processor style" quotes with ASCII quotes.
8b01a5df2 Trivial refactoring
16fc22a77 Clean up read/write stmt vs expr
164891bc0 Merge branch 'bast'
bd2fd0829 Generate Bast from NameExpression
b3371e1cb Add missing methods
6a804ec8a Rev the file format (for push to main)
f8f1c7181 Fix some bugs in BAST serialization
cf156d256 Fix register AST serialization
35121df64 Add some register numbers to some registers
d691cafae Add some register names to some registers
852db29fd Add accessors
24cd58084 Add Pre/Post Inc/Dec ASTs
e506f7199 Refactor PrefixExprAST based classes
0c7520fe0 Introduce Context.getThisRegister() API
cea19cc1b Improve binary AST register toString
0aad2a361 Updates for scoping
32e5fa581 VariableDeclarationStatement binary AST support
16c7d0815 AssignmentStatement binary AST support (finally!)
a8fd0f484 Trivial refactoring
20abc11a2 Fix the build
ccd6c7236 Merge the changes
70b07d90a Fix a consistency issue
85fe2b815 Fix a consistency issue
b6b27bc96 Fix serialization logic
9d2ab7b81 Widen the supported expressions that correspond to a byte-code register, to support temporary "Narrowed" solution equivalent to the current "shadow registers"
fbab95521 Add LValue binary AST support (WIP)
b05378d59 Generate BAST from LambdaExpression
8663e6bb8 Fix the build
5713f9131 sync point (WIP - will break the branch build!) requiring instances of "new RegisterAST" to be replaced
439d4a70f Add StmtExprAST
e1dd0e403 Simplify ConstExprAST construction
bb026579d Add BindMethod, BindFunction ASTs
bed7dfe60 Avoid repetitive AST error reporting
6c9c34541 Add CallAST
e73a64b1d Separate ConvertExprAST from SyntheticAST
3b5cc8d89 Add SyntheticAST for Pack, Unpack, Convert, etc
842ea6507 Add UnpackExprAST
9f8355ce6 Turn an AST exception into an error message
e80e55029 Correct cut&paste error
26836f375 Simplify ListExpressionAST production; add TupleExprAST
8c01ac40c Change syntax: Remove "switch ladder" concept (TODO: actually implementing this change)
b375bbd9f Keep the AST deserialization test in this branch
92dfcbfcc Add "image/x-icon" to predefined media types
1870cbf45 Fix a native exception processing
d35279a7a Remove a test of AST deserialization
658c50c02 Add "image/x-icon" to predefined media types
1c4138588 incremental updates (WIP)
b1f15b640 Fix a native exception processing
58b533181 Fix for the "15" error
0bd0451a9 wip (finally back to the "15" error)
19d06e910 wip
9e8f2d764 Move getExprAST() impl into BiExpression
4652b828c Ported unit test API to use the Jupiter APIs, so that we can use any compatible test suite whenever necessary. (#94)
6533507e4 Change serialization format for expressions in the binary AST
11b5430bd Add TypeExpression.getExprAST() implementation
953a5a4d8 Add NotNullExprAST, TemplateExprAST, TernaryExprAST
391e8de84 Fix an assertion check
4b346e8a7 Add ArrayAccessExprAST
ab00fbeac Add CmpChainExprAST
5e581faec Add AssertStmtAST
8cc6a0e8b Add a compiler check for "^^" operator on non-Boolean types
395be06f8 Add ThrowExprAST
106cf42cc Simplify code generation for ThrowExpression
13ba20f5b Add UnaryOpExprAST
229684ebb Fix "^^" op
26606493b Add "as" and "?:" ops for CondOpExprAST
70f8c4d53 Add missing ops for CondOpExprAST
4f6f03a52 Add DivRemExprAST and IsExprAST
8730b2fb9 Add RelOpExprAST
528582f37 Add missing instantiations
836d64233 WIP
93799711a Fix AST serialization
4943077e7 Fix AST deserialization (wip)
1e7dbe9df Plug in TryCatchStmtAST and TryFinallyStmtAST
2269c42df Simple refactoring
093086d00 Disallow "try" without "catch" or "finally"
d7b7834d0 Plug in ListExpression and MapExpression AST
4bddd689a Plug in Break and Continue AST
9958882a5 Trivial refactoring
511de5399 Plug in WhileStmtAST, DoWhileStmtAST, etc (wip)
46c829be8 Implement InvocationAST (part 1)
9bb6235b3 Add a pending type resolution during "finishValidation"
7ffe6f3e2 Trivial refactoring
e7a804f73 Remove an old comment
85cd0400c Add break/continue binary AST nodes
518c36dda Adding support for loop binary AST nodes
47a88d953 Bifurcate aggregator-related Collection API
2f6fd6e44 Add "return" support to binary AST
60866f35c Minor fixes from code review
236158acf Plug persistent AST in to Statement code gen
0b80837ab Update APIs for persistent AST
d28ef6963 Simplify ClassStructure.synthesizeAppendTo()
a3e1c36cb Trivial refactoring
3498ad798 Introduce APIs for persistent AST
bc696e849 Minor refinements
c22c09d97 Introduced ConcurrentLinkedBlockingQueue for use in the Runtime's thread-pool removing all contention.
d09b89429 Add MediaType for ".ico" files
94f8a4dff Fix unnecessarily restrictive auto-narrowed signature
5dd9b4ab1 Remove an assertion
4df30a4a5 Fix an assertion
a3f16de60 Fix the linker bug using a wrong parent container
7c28cc99d Make sure immutable Const[] "isA" Const
ee1cf19bc Remove contention at ensureFieldLayout()
5b8af8999 Revert xec.cfg; minor refactoring.
4082480aa Fix for bad auto formatting
ebc006c95 Build fix
459efdf67 Removed high contention points and increased default xec heap size.
ed299cb57 Post review w/ Mark
d77c92c05 Better cleanup of thread-safety
f253cfafc Cleanup of thread-safety
2d08eb387 Reduce run-time contentions
1adfba1a8 Fixed the debugger to ignore disabled exception breakpoints
e78e1ff79 Allow parent containers to "revealAs"
7fa797153 Replace an unnecessary "ensureChildByName" call with a corresponding "getChildByName"
8fb02d701 Correct in the last submission
cf875956c Pre-register well-known isA() recursions
7b0113a57 Improve TypeInfo computation for mixin
223ef947b Improve TypeInfo computation
f121b379a Remove MainContainer.getOriginalContaner() temporary "specialization"
d4f3328dc Implement KeyStore.getPassword() API
45c95b924 Remove unnecessary TODO
620fb375d Fix the doc
c6c714fc1 Remove unused gradle tasks
4096719b7 Fix comment
65abbef57 Add "unordered" remove() and delete() to Array; add corresponding test
bfa2e3307 Prevent logging repetitive "isA" warnings
29f477a10 Add test to cover aggregate functionality
f89dc37bd Move aggregate functionality up from NumberArray to OrderableArray
73cf97d23 Fix magnitude.get() implementation for Int128
e52f6e4ab Fix an NPE in AssertStatement
93b4b1e50 Fix an assertion
186982b9f Update README.md with git flow.  (#84)
fba84ebc4 Add new test for integer conversions
9ef090717 Fix integer conversion bugs, and tighten contracts; tests are still failing due to TypeInfo bug
c1033672b Revert the change at 12:36pm
eeb52629e Change file structure version (to support the previous commit)
fee207336 Remove explicit "implements Object" from classes; it is implicit
773394f6f Throw OutOfBounds for bits.get() for negative IntN
0eb9c7067 Fix a ClassCastException
e656798df Trivial formatting
2c2fc947c Support for WOFF and WOFF2 media types (fonts) (#85)
db2d8c618 Move the overflow checks to Checked* classes
a3d3e8cb5 Fix the test
cb8ab2ad6 Implement some outstanding IntN/UIntN TODOs
c99c9352b Fix MethodHandle instantiation bug
c9a752f25 Fix the doc
ccceaf3f7 Update the todo list
653d67680 Fix the build
17845e0fe Change binary .xtc file format version to reflect changes in this branch
51e5ae7df Fix the build (partial)
27c863baf Add missing toIntN / toUIntN support to IntLiteral
72878a5ba Add support for negative numbers to IntLiteral
79f54e638 Improving integer conversion logic
1bbd27410 Fix integer conversion bug resulting from signature change
7e27baecd Fix the build (partial)
9878d8c8b Compiles but doesn't pass tests yet
be24b6cd8 Compiles but doesn't pass tests yet
ad7c20f77 Fix the build
0bd31c782 Work in progress changing "Int" and "UInt" types
7eb54c43c Merge branch 'master' into Int-Refactor
0f844dfd6 Fix invocations using Method aliases
65df41ceb Fix the build
66ad6425c TODO GG
601eca86c Initial .java refactor to remove UncheckedInt
04911d90e Initial .x refactor to remove UncheckedInt
077051100 Improve the doc
8f082738a Modify the Random API to support service-based implementations
60f1d4df9 Fix "effectively final" computation in a switch
7776632b8 Improve proxying type computation
bce1cc4fe Improve an exception message
f754f3118 Improve BNF for anon types (not yet implemented)
09ee0057e Fix an NPE
7fef4d0af Fix createCopyImpl() bug
71300dfbb Fix ContainerLinker.loadFileTemplate() implementation
fda2fb995 Cleaning out old way of doing conditional compositions
4aaade116 Disambiguate session cookies when multiple "sites" are served on different ports on the same domain name or IP address.
54aa0e64a Add class comment to Char
309579ffe Adding `@Iff` annotation and API support for link-time conditionals
d991ee311 Trivial refactoring; remove unused imports
f2b2abd3d Fix Fiber.isAssociated() implementation
63ef22c29 Add "bindAddress" argument to HttpServer.configure() API
32c68d24b Minor fix: Session de-authentification must clear all roles associated with the user
be79fcfa0 Allow wildcard importing for a typedef
152764eda Minor doc improvement
708fbd1a9 Minor doc improvement
5e1908d22 Updated readme to add section for bleeding edge developers (#80)
d9bd6a7f2 Trivial refactoring
4d3a433b8 Fix the web.Client API
90701e749 Fix typo in comment
4d47a7990 Fix a compiler assertion
4682973d9 Improve compiler error reporting
097d69eb7 Simplify formal type parameter computation logic
6e9b4a8c8 Fix a "container leak" in ensureFieldLayout()
2f6248524 Replace an assert with an error
6a29833ac Merge branch 'Collectors'
aaae45b98 Replace optional Map parameter on association/grouping Collection methods with a new MapCollector class
db11c224b Rename a property
8edca7f27 Prevent accidental reify on the "other" flatMap() method
939f9726b Remove a fixed TODO
575c3b282 Improve (reduce) compiler error reporting
05d2a1606 Improve (reduce) compiler error reporting
c133bf097 Wire in the deferred pipeline functionality
02c747345 Fix flatMap() functionality (still needs additional tests)
524dee965 Update DeferredCollection for partition() and flatMap()
0a11be9e0 Minor change to align Iterator flatMap() with Collection flatMap()
c3004849d Fix flattening iterator
95d2ccbc7 Minor code formatting changes
942b86bdf Fix isA() check for function types and take default argument values into consideration while binding methods
5b6e55b64 Fix isA() check for function types and take default argument values into consideration while binding methods
f90dded8a Add deferred partition() implementation
96d54ae8b Add deferred flatMap() implementation
7e63a32ac Fix typos
3c5b33537 Fix typos
66f110178 Fix a run-time assertion caused by the delegation
8398579da Fix a run-time assertion caused by the delegation
7df0c50f7 Mark auto-generated delegating methods and properties as "synthetic"
4008f40f4 Mark auto-generated delegating methods and properties as "synthetic"
1b138c434 Fix the build
04fc71e7a Fix the build
142d8f41d Improve compiler error messages
bee3a1fa6 Improve compiler error messages
0cf4ab418 Add "rebaseMethodConstant" logic to assemble more informative MethodConstants during code generation
52d6b14f6 Fix the build (temporary)
9ada13b90 Introduce deferred map() support, and other minor related improvements to Collection APIs and deferred implementations
3d35fe346 Add "rebaseMethodConstant" logic to assemble more informative MethodConstants during code generation
9c8d11ecb Fix the build (temporary)
ed078dc41 Minor improvement from code review
44d1f0684 Minor fixes and TODO comments
97468ac2d Implement NumberArray aggregating methods; add quick sort
498c5299f Update todo-list
f2c4a1bee Implement NumberArray aggregating methods; add quick sort
08a0d2f12 Update todo-list
67f25e9f7 Remove imdb library
bd3687164 Remove imdb library
9d0b99812 Fix a TODO
bf047ccb4 Improve typedef support in the compiler
3307615b8 Improve typedef support in the compiler
7e746031b Fix a TODO
6d4eac2b7 Improve formal type parameter resolution logic
e6c3b1290 Improve formal type parameter resolution logic
ae9975894 Fix a TODO
22b15a9dd Minor fixes and TODO comments
fea4cfdde Clean up a fixed TODO
528d6fb43 Clean up old TODOs
beac4ced0 Make ComponentTemplate Stringable
a52d9816f Clean up a fixed TODO
ed4c0e1fd Clean up old TODOs
24f609f46 Make ComponentTemplate Stringable
e7c10c7b5 Fox a typo
70567f3b7 Improve type parameter resolution logic
d008fd544 Improve type parameter resolution logic
d68b8dd8f Add a compiler check for a "delegates" target
0bb966599 Add a compiler check for a "delegates" target
a56b84aec Fix the build
92b84d2b6 Fix the build
398f0e029 Fix InvocationExpression validation logic
327675a9d Fix InvocationExpression validation logic
e0dbb7243 Add deferred distinct() implementation (compiler exception TODO GG)
7cb6ede7b Finish a TODO
ec45bcfe7 Improve ListMap and finish TODOs
fcf1677f5 Remove fixed TODOs
9372ec749 Fix InvocationExpression.resolveReturnTypes()
2d0556b61 Fix InvocationExpression.resolveReturnTypes()
339835bb9 Add generic CollectionFreezer implementation based on ListFreezer and Duplicable/CopyableCollection
e0f68e081 Add Collector support to replace the ability to pass in mutable destination collections for various Collection operations
867d5f4a2 Further improve formal type parameter resolution logic
dca5897e8 Remove unnecessary TODO
73ee1cc83 Fix AOOB compiler exception
df51d1fd0 Fix the build
9531e0e3e Fix formal type paramater resolution logic
774313b71 Fix code generation for lambdas inside of properties
865650930 Fix TypeInfo generation for PropertyClassTypeConstant
fd91d37c8 Fix PropertyComposition.getInceptionType()
17415af4e Add missing "isShared" implementations
bcb6e5a7c Fix RootContext.isFunction() implementation
f0b66bd8d Fix a typo
1b1d7906c Move db code generator logic to jsondb module
a860f4ca7 Fix a typo
e44f0d4e2 Add "Basic" and "Digest" auth support to web.Client
ac0837a1e Fix op signature computation issues
9e84d6b23 Fix an assertion
10676693a (minor) Fix comment
271cfe74c Add String.unquote() method
40c0c68e1 Add function-based List.indexOf() and List.lastIndexOf()
2b57d58ce Fix Uri.parseNetPath() handling of server info
2b1906807 Trivial reformatting
de00a8d2a Fix toString() for native implementations
749d237b1 Fix an assertion
4dd31e6a9 Add "format-by-type" look up
650589fa5 Improve exception messages
b4b67ebf7 Remove an annotation that we previously de-supported
d16e4fa48 Change code style for auto-generated code
8a554679a Change code style for manual db- and web- tests
988cec13e Change code style for the XDK examples
dd638f734 Change code style for the HTTP libraries: lib_web, lib_webauth, and lib_xenia
8493d325e Change code style for lib_oodb
3221193c2 Change code style for lib_net
b3aec6ff0 Change code style for lib_jsondb
78846586a Change code style for lib_json
2dbd4b2a4 Change code style for lib_crypto
5f2e9556e Change code style for lib_collections
05758283d Change code style for lib_aggregate
595a73aaa Change code style for the bottom turtle
7e3bf8a0c Update code style of one remaining file in the Ecstasy core library
357d42a3a Minor fixes and improvements for reformatting tool
86cc78bb6 Update code style for Javatools Bridge code
5ddf6d55d Add temporary tool to help with re-formatting Ecstasy code
7286ef592 Fix typo
246c586f0 Reformat Ecstasy core library code to new coding standard
70e382002 Fix a native assert
17f260fbd Fix minor Lexer bug
9d81f6ad3 Fix a regression caused by the ProxyHandle changes on 5/29
5e0b66c8d Fix MapMapping to allow using explicitly specified Map implementations
5602d5db8 Missed one more emacs ignore (#75)
d5024743c Fix service.appendTo(buf) call
48af11409 Fix binding parameters to functions with more than two parameters (#74)
17a1c04c7 Improve run-time exception text
598c8f88d Improve compiler error reporting
82ea566cd Add support for SHA-512-256 algorithm
207c8c9a6 Improve a comment
c057f4b09 Fix cut&paste typo
267fea89b Remove fixed TODO
e265f26a7 Fix a bug in MarkedIterator
433498756 Fix MapMapping to allow using explicitly specified Map implementations
a82a80af6 Improve API doc
4f207e396 Upgrade gradle version to 8.0.2
faea96518 Fix to error that popped up in the JSON database due to type lookup in JSON due to missing token "peel" functionality in the Ecstasy impl of the Ecstasy lexer
da53d51a8 Added simple on push workflow for GitHub, that runs Gradle build through the checked in wrapper. (#69)
0d11aa1ec Fix a regression caused by the fix on 6/20
7496c2fec ignore ctags (#67)
712c2e44e Fix a bug caused by incorrectly relying on the storage model during "in-flight" transaction
63f5db7f5 Fix an array instantiation bug (mutable vs. fixed size)
fdb383112 Fix JsonMapStore.keysAt() bug
f3c780b6e Fix code auto-gen for parameters with default values
8a9e93efd Log an exception thrown by createAuthenticator() call
9c409b6fa Remove incorrect assert
1cb11c91f Disregard non-funky functions during duck-typing check
e0a083aaf Improve duck-typing check
bc62cff3d Retain auto-narrowing type info for duck-typing checks
1065db30d Add new issue type for Github
fdbc41c25 Trivial
a7d68d54a Minor improvement to TODO parsing, and method selection for non-completable expressions like the TODO expression
7504d6b41 Add support for DB reflection (WIP)
2b41572d9 Add a "-rebuild" flag to gradle "compileOne" task
119da260e Remove resolved TODOs
0f9073b1d Change "buildSourceTree()" method to ... (missing part)
30f19f808 Remove Cloneable interface and use Duplicable instead
962650017 Change "buildSourceTree()" method to create a predictable (not OS-dependent) list of source files
03994efdf Update a todo list
e02b3c300 Fix handling of DeferredValueConstant
6604511a2 Fix compiler bugs exposed by compilation on Windows
cb5e03c45 FIx compiler bugs exposed by WIndows compilation
5e04dda7e Use the "default" property for code generation
f6cbd0144 Fix getChildByPath()
34121df37 Fix a typo
9f68d563c Fix NewCG_* op-codes implementation
86d4889f1 Parser changes to support a property named "default" for const values (compiler changes not yet implemented)
6a96b2232 Fix the DB code generation
cb8f3eaf0 Adjust the DB auto-generation to the new DBObjectInfo API (still WIP)
8327a59ba Fix a compiler assertion
7b040e81a Refactoring for DBObjectInfo changes; functionality still WIP
983b402f9 Fix the build
c6ef21b26 Minor change to BNF to support "default" property
d0ead2bdb Add a temporary workaround for DBValue initialization
4dc63c5ae Remove unused tags
8db80458d Fix the build
70b46c79d Change metadata in OODB system schema
c338fecc8 Fix the compier check for annotation applicability
01a7ec4eb Fix an assertion
35968a466 Add MethodStructure.getRequiredParamCount() API
36fb3531d Add missing getType() implementations
6cc71b7c1 Fix an NPE
221d499b6 Exclude finalizers from TypeInfo
ca3dba3cf Fix "getDefaultValue()" implementation
4f9203880 Fix the compiler bug caused by deferred property values
b62e171a7 Minor change
a2b47f00e FIx ComponentTemplate API and native implementation
545f38bf6 Add support for nested DBScheme objects
681a7306e Fix an assertion
0a8d1a2e4 Revert and change the fix for the run-time handling of module import packages; add "Imports" composition to ClassTemplate.x
f29c50ec8 Fix the run-time handling of module import packages
fef046436 Add run-time support for module injector
0faae9d2c Make post-review changes; add injector instantiability check
1ee369600 Add syntax and structural support for overriding injections for imported modules
35a809501 Fix the doc
2bc351a46 Improve comment
7bab167b0 Remove an obsolete TODO
ad26ece6e Remove a fixed TODO
76b39da69 Adjust the Set ops
10205a4ae Replace an assertion with an error message
f24aef76a Improve ElseExpression compilation
33f505e2f Improve AssertStatement compilation
e4b6f6f8d Improve Context.joinArgument() logic
6f401238d Add a compiler check for @Override annotation on methods that call "super"
69cee2e67 Fix error reporting for annotations
e6163e6a6 Fix an assertion in TypeInfo computation
39daf5012 Fix an incorrect error reporting; simple re-factoring
6aa9c105a Refine db auth implementation and documentation
9d44ab8ee Improve and correct comment
a76da6dec Improve and correct comment
158e06fef Add database support for authorization (WIP)
a7b73f8de Replace an NPE with a descriptive exception
f32c60cab Treat service inner child as a service
56b7d1ba6 Improve compilation error reporting for property initializers
63e34fa38 Fix the compiler issue with deferred property initializers
2a4956ecb Fix a regression
17e0c5f3f Fix the db code generator
11ad6215b Tighten the turtle type API contracts after review
6d4711e27 Improve "isA()" support for the turtle type
42ae3ee60 Simplify TypeSequenceTypeConstant
3de4ccfe5 Optimize MapMapping for String keys
2db41d65e Fix a variable/package name collision
e71dcfe34 Remove some unnecessary TODOs
45f78fcf5 Fix a TODO
b29cefa21 Allow "void f()" to be assigned to "Tuple<> f()"
3ce604d03 Remove unnecessary "escapes"
1024b956f Disallow "continue" as the last statement in a switch
2dd5d4f15 Fix a bug failing an override of @Lazy property with a different @Lazy
d61086570 Add an implicit property collision check
258d25a0c Add a context association check for debugger during "onReturn" processing
24ae8f93b Fix ForStatement completion computation
11e5b7d47 Added a callback endpoint to "hello" page
578d194a6 Fix a simple TODO
7778b74e9 Fix ElvisExpression validation logic
418957126 Tighten the check for inferring property immutability
a88b59360 Plug in the cookie decryptor
7024bbf00 Fix a couple of session related issues
a854d01df Add cookie encryption configuration support
b29ff87fa Fix the typo in the file names
4393f095c Update the todo list
a1632cc8f Fix the constructor
82cd4e5a3 Fix the default arg processing
e70cc3db0 Make findOpChain() algorithm more robust
aeabd983a Simplify the Algorithm API
a0186e2a9 Fix the test
64d5f9082 Fix KeyStore.getKey() implementation
11ad340d0 Add roles to realm and session
fd28dd2bf Add Hashable support to common Set implementations
36214cd0e Add TODO for GG
1894a8d7c Fix MethodStructure.resolveTypeParameters() method
be5e0cfc3 Fix a regression
4c5bd6934 Fix isA() for IntersectionType
987489b1c Fix the build
4ca7d32b0 Fix the build#
d76ebb8a3 Fix the build
d657cce8d Move Register's id generation to the MethodStructure
9643a9994 (minor) Add "@Concurrent" annotation to concurrent-safe Authenticator implementations
9601ec4ce Reformat (again) after a squash
2ccfa323c Add a compiler check for incorrectly marked Unassigned properties
6e71a03ae Fix handling of @Unassigned and @Final annotations
f67f748ab Fix the "subsumeFunction" implementation
038904b00 Fix context handling by ElvisExpression
47f01ec06 Fix run-time handling of dynamic handles that are not futures
300658918 Fix access check for classes defined inside of methods
6538a793e Update cookie verification logic to handle protocol violations
ec175e55e Fix lambda type resolution for TypeParameters
4e1105084 Fix a native array constructor
283128555 Fix TypeParameterConstant.getConstraintType() implementation
a37534ddc Fix the build (trivial switch statement)
6238ca31c Remove obsolete comment
4639764a9 Fix an NPE in error reporting
d675eacda Minor simplification
d82b473a4 Remove grenade and re-insert pin
33dc35a46 Update Elvis functionality to match NotNullExpression
ac42d61ff Add event dispatch and error reporting support to session events
c9265bb97 Add "-version" command to xec
c635d7ac1 Add "history" and "." debugger commands
5f364bb48 Add "eval_multi" debugger command
c0f37a3f7 Allow switching on a subset of invocation return values
f075b3821 Fixed consent information loss on server restart
83d1fb2ff Fixed unexpected session cookie bug on server restart
9abe9d5d4 Symplify KeyGenerator algorithms; add support for symmetrical keys
474ae6648 Remove unused attribute on cookie info
dbc392cec Fix a cookie initialization bug, and fix persistent cookie enable/disable feature
e2dd399d5 Fix a bug in which the NotNullExpression could assign a Null value to an LValue
663f5e546 (experimental feature) Add support to the postfix "?" operator for evaluating conditional expressions
1b2db4c85 FIx the build
8b55a294a (breaking change) Add configuration support for cookie encryption
baf8586a5 Add documentation
529e9690e Tighten cookie resending rules and verification checks
b332de2e9 Add support for persistent session cookie and update test
c4df1216e Add support for the "file upload" functionality
4b8668acf Improve the assert:debug behavior at the end of a method
e63b2e6eb Add debugger support to the FutureHandle
15e954e33 Add a todo
57dde660c Improve Interval-based loop compilation
7a6800319 Trivial reformatting
4c4c8b1f9 Rollback a small incorrect part of "BC" command implementation
c18b57ec0 Add a couple of TODOs
f5cbbf197 Move http-related helpers to http package
8573879b0 Trivial reformatting
5f3961044 Implement conditional breakpoint at the debugger
a57c23d7d Simplify eval command processing
2d32b133d Add missing conversions and range checks
68d66d72d Include resources into making determination whether a module is "up-to-date"
66e72e96a Fix a typo
33aae6093 Trivial reformatting
0847768d6 Add a File based constructor to HtmpResponse
12b312fe5 Improve TypeConstant.ensureAccess() implementation
01d35b4cb Introduce simple helper for HTML web page responses
32c902f8b Normalize the user agent string in the HTTP client
77351ce19 Remove a deferred TODO (https://github.com/xtclang/xvm/issues/53)
6e8fef415 Remove a TODO (https://github.com/xtclang/xvm/issues/52)
5fcd80011 Fix the "duck type" relation check for non-public types
9366909f6 Do trivial refactoring
2d40af082 Change the SimpleRequest's default accept list to "*/*"
f9759075c Upgraded Gradle to >=7.6. Explicitly set org.gradle.warning.mode to all, to catch deprecations early (#50)
430a0e888 Add type inference support for "outer this"
83867c3e5 Update the gradle version to 7.6
9509d59a2 Buildsystem tweaks and encodings (#49)
fdf4c9533 Improve OpInvocable.getCallChain() algorithm
89dfc5210 Fix Type.createHasher() implementation
b89deb99c Update examples included with the XDK
1d6fa7254 Fis an infinite recursion in the compiler
3f895a72b Minor change to make auth factory interface visible
03e2b51cf Include a self-signed certificate for Hello test
a0a088bc9 Add infinite recursion test for new TruncatingSigner implementation
017c71a3d Fix the debugger view for Ref annotaed properties
a07da7e2c Fix standalone jsondb support (failed LogDB test)
43008593e Remove obsolete REVIEW comments
92124195c Make Tuple auto-freezable (inPlace=False)
23d735951 Add support for AutoFreezable parameters
3cc29410c Enable optional authenticator factory
c24ec26d1 Extend single line method syntax to properties that define a single method.
5b066df67 Fix some comments
8a3b1661a Add a "login" call to HelloClient
9fd200c0d Fix Tuple.freeze() implementation
629f96135 Fix VarT* opcodes
555030f8b Prevent masking of injected constants
9f6d5fe71 Add run-time support for AutoFreezable
480e54b48 Add documentation / explanation
67d617aec Add single-expression method syntax
306666a49 Added ability to display template expression as text, e.g. for debugging: "${x=}"
6ce1fb2d7 Fix Digest calculation
c7ad1629f Initial Digest auth implementation (note: still fails to authenticate)
98ba262ae Missed a place with the previous whitespace change
1fa284001 Improve assertion
c9ce41516 Remove unnecessary VirtualChildTypeConstant constraint
93408e381 Remove unnecessary VirtualChildTypeConstant constraint; partially restore a lookup phase in "getMethodBySignature()" (changed on 3/6/23)
ab9e27347 Add and fix comments
4d63500f1 Add whitespace tolerance to delimited String Map
81c3ad7c9 Add properties: HttpServer.hostName, RequestIn.url; add "logout" and "info" to the Hello page
476342d21 Fix a bug in "construct" code generation
f3dfbf04c Work around Firefox bug
9de599a8e Updates to FixedRealm to support Digest auth
c888f7e97 Minor change
5973d1838 Allow narrowing of parameter types for virtual methods
e8422e87d Remove unused lookup phase in "getMethodBySignature()"
ad8a6cb4a Add "SHA-512" digest support
e67a9d1d7 Fix the ListSet constructors
1e3f9473e Introduce AutoFreezable
0056969a2 Add landing page, improve "echo" command
f22642d9b Fix the array constructor
a42b73f29 Move a TODO to the deferred list
fb56a8d6e Updates from code review
942ffe90d Add hashed storage support for FixedRealm
5724c6fed Add API for hashed Realm support
76c95341e Add a TODO CP
f9e2a03eb Make the response from BasicAuthenticator immutable
e1c92d753 Fix HttpRequest1.getProtocol()
240aad712 Fix the bug in NameExpression.narrowType() logic
ba1cc0d1c Add scheme.get() implementation to HttpRequest1
c1672ee7d Fix a typo
717abe4fa Fix the injection of Null handling
7331f6a3e Fixing Gradle incompatible change
34111ce31 Simplify BasicResourceProvider
c813972ca Add a trivial native Authenticator injection for platform-less web tests
884a9ef6a Break the "Hello" web app (TODO GG)
b083e0d25 Introduce "Basic" authentication implementation
6d8557942 Fix a regression in web.Registry
df5036e92 Fix the compiler regression (constructor check for annotations)
bc55727be Fix checkMethodCompatibility() logic
769c06dfe Introduce authentication APIs
c1915ee60 Trivial refactoring suggested by IDEA
d6354d4f5 Fix a bad typo
a2340f0b3 Remove unused imports
d6f3f5e11 Optimize out calls to no-op constructors
2af427852 Add tests for conditional mixin shorthand construction
c133596d4 Fix argument validation for conditional mixin shorthand constructors
3caa552ac Fix default constructor calls for mixins
9df0a14a3 Simplify use of Contribution.getTypeParams() API
d8f4b687b Trivial simplification
dc5480af9 Fix an infinite recursion for cyclical contributions
32d40ef5f Trivial reformatting
c0dda6f8c Disallow parameterized contribution if default or shorthand constructor is present
042353be8 Improve TypeCompositionStatement validation
7702fb16d Remove use of deprecated APIs
bae776ac0 Implement compiler reachability test for is(_) switch
9ee0339da Fix ListSet.last() implementation
37ca92f4f Improve "switch" compilation
28a1ceabd Add ListSet.get() API
dc4e0fa1a Trivial refactoring
7acc19dcf Improve xRTType.makeRelationalType() implementation
8c4f37344 Improve formal type resolution for Type arguments
d8985daee Improve compilation of "dynamic" NameTypeExpressions
b8fabab25 Simplify natural usage of Type variables
b8edc1715 Remove fixed TODOs
64a9dffed Improve codec lookup algorithm
a98bd9294 Add URI "apply" functionality
f62b576d8 Implement web Ciient API
8fdd9bf2a Minor fix for URI port
9b8069487 Trivial formatting
38accd9b5 Fix native "reify()" logic
39c4f45a1 Add trivial cleanup
6df5fde57 Refactor Request/Response API
5ac8e1545 Add missing native "toDec" conversion
681be6fe3 Minor API change
a8d813e2a Add a natural "FileNotFound" check
949a01211 Fix a regression
344621ba1 Introduce File.read() API
559f85d54 Fix the ReflectionMapping logic
2c4039bae Add compiler error/warning for "never" and "always" .is() matches
317273cb1 Relax isIncompatibleCombo() logic; add type-of-type incompatibility check
82aea40ff Fix for xvm gc OOME, and gc API improvements
3bac1a7a2 Cleanup of iterative marking.
62fc27979 Added support for walking abritrarily large object graphs.
97e959c21 Move field accessor logic into GcSpace.
9d5cb670a Improve TypeConstant.combine() implementation
24e784af8 Add missing UnresolvedTypeConstant methods
570924a70 Remove a no longer relevant comment
e263ca5f1 Simplify AssignmentStatement validation logic
e6891c9d2 Added detection of operations on gc'd objects.
2f420ef37 Implement manual key generation functionality
969f6ec7f Fix Random.fill() native implementation
d88fdce91 Fix a compiler assertion
73ae75c4e Improve toString() for CryptoKeys
9c82c321d Implement native Hasher and Signer functionality
0ada95752 Change the Algorithms structures
2e2d13640 Minor refactoring to gc.
73d7ffe4e Add a missing resource for crypto.x test
24e5c62b7 Add "StackOverflow" protection for services
6c0697126 Add TestCrypto to the test suite
24dcc8057 Fix date processing by KeyStore
dc9900953 Add and implement KeyGenerator algorithms
f9aa8adb5 Fix the code generation for "this."
05128df15 Minor weak-ref gc optimizations.
751b8bf4d minor
9d4eba8c4 Weak-ref handling cleanup.
1a61f42f3 Cleanup to weak-ref gc handling.
bf1eaa466 Added weak-ref support to the gc.
a584b4b78 Fix RTAlgorithms, implement the native part of Encryptor/Decryptor
867d6327b Minor fix
1548f16f6 Tests and fixes to mark-and-sweep gc.
e669af355 Implement native part of Signer/Verifier (WIP)
5e4844c13 minor
bf4791beb Add a todo item
f0b52d626 Minor fix
e897330e3 Introduce the begninings of a mark-and-sweep collector
37c7b40df Introduce Algorithms resource
9bb585816 Add password support to Crypto API
794f62a35 Trivial refactoring
a0592d2b9 Add ensureMapType() helper
f1c521bf3 Trivial simplification
6c86075fc Fix a regression
10937b5f9 Add support for the HTTPS server certificate selection
0d6a1e525 Change Signer/Verifier APIs; add native support
6e266476f Add private key support to the KeyStore
31a0ad269 Trivial
a9027fd45 Fix comment
d3c6f17fb Update Console API (Note: Will break downstream code)
cbf39666d Added Dec.toInt native impl (with TODOs for GG)
530acbb6b Document aggregate TODOs
ceaca6f6c Fix mixins access to private properties/methods when allowed
02d2c7051 Update the doc
ccf5c68c1 Fix multi-line string template bug
d38b3da90 Add Signature to Certificate API
43433cf59 Add name to the Public/PrivateKey toString() implementation
2bda9dcd6 Implement additional Certificate API
ac09110a8 Update the doc
d70b3388a Add Nullable.notNull() helper function
127122e2c Fix PropertyInfo.inferImmutable() implementation for relational types
89f4a588e Further minor improvements to Lexer
93d803035 Change the HttpServer configuration API
926395a12 Fix bug and doc
6b4b0fed3 Fix a regression
39e5844f1 Change the Certificate API
69e457dcc Minor edit
ca218a73f Fix an obvious bug in Iterator.range()
2a365c26a Create initial (WIP) native KeyStore logic implementation
9de8e8d8c Improve parsing of version literals and error reporting related to it
3464a3a67 Fix ref-annotated property initialization
5627ca9bb Remove plugin_intellij module from main repository
d4f2a113f Bump the intellij plugin version
801b61cda Fix native support for IntN and UIntN
11d70da88 Implementing "huge" packed integer format (>64 bytes); still a bug in IntN.toUIntN()
594ea4798 Fix a lexer assertion
b55a505c9 Update the crypto API
860a80f15 Fix Lambda return type calculation
47b366c16 Improve formal type parameter resolution logic
a0147f711 Make small corrections to Numeric API
0aea0a5ca Fix a TODO
f8a26d5c2 Fix two runtime assertions caused by the incorrect code gen
d00558433 Fix a message generation by assert
e41bf58be Improvements to assert, with TODOs for GG
7ef8cf981 Fix equality API for constants
2e25b2fc8 Change IdentityConstant.ensureTypeInfo() to use canonical type
32f65a0a6 Improve formal type parameter resolution logic
32402daf0 Example of calculating all permutations
71484aae7 Prototype of 28-bit internal decimal format
cebcc6ffb Fix "leftmostBit" and "rightmostBit" implementation for Int/UInt
1683554f4 Change Int.MinValue
f9b38dd5f Create synthetic native getters for synthetic native properties
115ad081f Fix LiteralConstant.getPackagedInteger() computation
810da13e7 Add missing IntLiteral op and const conversions
e4231e702 Implement "bitLength" natively for Int/Uint; fix trailingZeroCount for zero
5f6f34788 Show loop auto-variables ("count", "last", etc.) in the debugger
c9071351d Minor refactoring of min/max usage
cde6b63fd Improve default behavior (minor)
2e07e72a1 Introduce notLessThan/notGreaterThan helper functions
f5bec2ab7 Add native Int[] and UInt[] support
5068df36d Simplify the test (remove TODOs)
5f773d66a Fix native "deleteRangeImpl()"
5060011c4 Fix Random.int(Int max) implementation
965052c9f Minor improvements to hex dump
d543adc21 Reproducer for issue with rnt.int(1) for GG
ec3f8d005 Fix ConstOrdinalList
8906e7de4 Fixes to avoid sign extension problems
d842419b1 Minor fix to a recently invalidated assumption
0ec4f2ab2 Minor improvements & fixes
8080962b4 Fix byte ordering for 128-bit int arrays
20d1da162 Add missing native "bitCount" implementation for Int
7b172f172 Get rid of the native "abs" implementation for constrained integers
a9e33b1e6 Minor updates; added REVIEW tag
eec78477c Remove a TODO
3bcd11a0f Remove unused code; fix a typo
23bd5a931 Merge branch 'xnt'
2eb11fbe0 Updating step and breakpoint options; updating help
23ecfaf23 Fix a couple of typos; make Int.hashCode() native
419de595a Fix the conversion for less thah 64-bit integers, add "truncate" support to IntLiteral
a63a4a257 New test for ConstOrdinalList (ported from Java test)
0f32aa0af Add "dump" support to test
761d8f484 Minor comment fix
da614f895 Add native support for Int128[]
90d8e8987 Add missing native IndexSupport methods to Array
583108c00 Add "hex dump" feature to Byte[]
898e6455d Add ability to step a certain number of times in the debugger
c339c6ea7 Make mark native property method public
f30f4634d Minor fix
a514238b8 Remove unused code
7d8a0646f Add overflow checks for UInt
c0c5a6a89 Simplify AtomicIntNumber support; add AtomicInt support
fb1d75937 Fix native Random impl
d2088bc5c Fix a test
498ec5d05 Revert a PropertyInfo change
44a97af93 Fix LongLong shift implementations
522d6bbb5 Fix off-by-infinity bug
6629f350d Fix Int.magnitude implementation
e662eb2dd Make Int related adjustments to json and web modules
92e346e32 Fix DataOutput.writePackedInt()
4a19c20df Add "truncate" support for 128-bit ints
7428e9821 Add native support for optional "truncate" conversion argument
0128cda7f Add native "shift" and byte[] based construction to Int
0dae8e1b4 Correct "shift*" signatures; fix an arity bug
06fe2cf9c Make the numbers.x test work
b20caea45 Make post-review changes
6c1d14f1c Fix comment; add REVIEW tag
15f2cd471 Minor fix
fd3652e4a Use explicit Int64 for TimeZone structure
8f21aa454 Minor reverts and edits for new Int type
2bac5f24c Fix comment; add REVIEW tag
90da829a0 Selective minor reverts on collections-related classes
b2f357ef5 Minor partial revert
09fb3839d Minor revert
25b8d21e9 Fixes to ByteArray, and added IntConvertible and FPConvertible to NumberArray
aa6b0124a Fix the run-time (WIP)
73f524cb3 Fix an incorrect type inference
1fc6901ca Fix an incorrect type inference
740702df2 Fix the tests compilation
c3ad329d1 Fix the build
8a558e1c8 Specific reverts now that Int includes various Bitwise ops
9f8ca60ee Fixing Random TODOs
a7e4389c3 Fix the build
97fdf54a9 Revert "Rename Xnt to Int"
526d87219 Rename Xnt to Int
093049b0e Add native Int (Xnt) and UInt support
151c2708f Add conversion support to "for each" compilation
4db94c723 Add conversion support to "for each" compilation
aeb0c9e4c Select more explicit sizes for types within the date/time classes
18f545a1d Add missing conversions
116341b6a Fix the build
b9a28a11f Post review changes
a942a36a5 Minor reverts and fixes
d585d63c0 Minor reverts for bitCount etc.
49d3dce59 Minor reverts for bitCount
4aea93626 Minor revert
d53dd0b75 Add IntConvertible interface to Char
6b7ccc0d6 Minor fixes on ConstOrdinalList for new "Int" handling
fa879544c Adding selected bitwise operations to auto-sized Int and UInt
92ae01361 Rename Xnt to Int
f9afc8c3a Introduce automatically sized Dec type
aef075800 Fix super() call validation; add missing compiler checks
f439ea2d3 Change the file name to match the class
fbc8f00ba Fix super() call validation; add missing compiler checks
009e9b472 Change the file name to match the class
05c6b69b4 Fixing some issues in the build. (Tests still don't pass.)
496e7ed09 All getting reference of predefined variables
db98052be All getting reference of predefined variables
148c761fc Change hashCode() signature
a762215b4 Add native Int (Xnt) and UInt support
9f1344aa3 Fix unsigned "mul"; remove duplicate code
40801e7b2 Fix unsigned "mul"; remove duplicate code
ace76d47d Make UncheckedInt to apply to Bitwise
9f003bfd8 Fix a couple of cut&paste errors
328377ac0 Fix a couple of cut&paste errors
87785770a Remove fixed TODO
5e6408388 Improve the compiler to detect circular constant initialization
839190764 Improve the compiler to detect circular constant initialization
2a0e1c148 Remove fixed TODOs
787eb754a Fix a compiler exception (ISE)
26e6279ef Fix a compiler exception (ISE)
25eff7710 Mask the native types for Parameter and Return values
bdb6a8688 Mask the native types for Parameter and Return values
060efa6b7 Introduce automatically sized Int and UInt types
b91f3bebd Add trivial BodyParam processing
823f8d1b6 Fix an NPE
447fa0768 Fix an assertion at Random.fill(Bit[])
f99406bbf Report a failure to load a module
7755af159 Improve native methods/properties support
b5de31ba0 Add missing "invalidateTypeInfo" calls
287bb039b Introduce ClassTemplate.invalidateTypeInfo() method
620a7e4aa Add a compiler check for type-based switches (test)
eafe9e579 Add a compiler check for type-based switches
3ea2ff83c Remove unnecessary cast
2037a94d3 Update Gradle IntelliJ plugin version
4b4c135b6 Delay clearing the logInfos array until closeLog()
c84d1e475 Add support for fully qualified hosted web app names
641ff93c0 Fix a leak
9d4aff647 Revert an erroneous change
7662dac52 Remove unnecessary TODOs
594904267 Improve "isNestMateOf()" computation
86378876c Remove fixed TODOs
67c527136 Relax the type parameter resolution logic
7ba2241c4 Improve inner class support
00170db00 Fix immutability support for VirtualChildTypeConstant
856a42ff9 Beautify "new Array(...)" code occurrences
ddb12ea74 Fix NewExpression logic
6ab1719db Introduce InnerChildTypeConstant
98e0d7211 Add FP8 types (not fully implemented)
b25c350b2 Remove unused methods; fix the build
ef7b55dc8 Simplify inner class/child support
f4c4cbb51 Update doc
14872ffaf Update doc
e656f2c8e Fix resolveTypeParameter() logic
1781e276d Prep work on Number types: * Connect the standardized conversion interfaces (IntConvertible, FPConvertible) * Add rounding and truncation as optional parameters when converting to integers * Change compiler to allow @Auto convert methods to have optional parameters
2fce57bfc Simple refactoring of common code
b2c3d2915 Fix a compiler assertion
7e2e3333e Cleanup cached types when the structure changes
e65e092c1 Minor name changes.
fe0fc7e2d Revert "FIx outdated TODOs"
6ecf2c1b2 FIx outdated TODOs
f3522ea2a Minor clean up
3f375bbb4 Add support for fully qualified DB module names
336677c5d Fix an assertion
3cc792057 Fix a regression in the DB code generation
fe24f7575 Improve native toString() for TypeConstant of function type
1ffd536fe Ugrade the IntelliJ plugin version
ec3a28927 Offset the rank of the incorporated fields by the base class rank
8a3ba9faf Update the todo-list; trivial refactoring
4687a8347 Simplify "isProxyable" check
bd431c6b1 Make RTFunction not to extend xConst
a3bfc06d0 Use WeakCallback to hold alarm functions by native services
d5cd90adc Trivial API refactoring
0c317a1ee Add a run-time type check for field assignments
12ce4cdf5 Add a compiler check for property types declared by "shorthand" class notation
2af9d0e06 Fix the default value initialization logic for @Unchecked integer values
243180ef1 Fix native regex implementation
9b1225efb Fix the natural part of CPFileStore implementation
fd344da87 Fix getType() for RangeConstant based on enum values
8c7ea251a Trivial refactoring
ce443c2ee Fix predictability of implicit naming precedence
00f6ca28b Add a missing "IdentityConstant -> Class" conversion
d723ddf3a More of simple refactoring
ad861639d Simple refactoring based on IDEA code analysis
5c855216f Update todo list
25c6c2fac Fix another compilation bug
c0945c4b3 Fix do..while compilation bugs
f3234de5b Fix an assertion
cfbb200d9 Fix ClassComposition.revealAs()
9c25a16a1 Simplify StatementExpression validation
52926af4f Remove gradlew files
55dd82bc7 Deleting .idea files from git; if you use IDEA, make a backup of these files before doing a "git pull": .idea/codeStyles/Project.xml .idea/codeStyles/codeStyleConfig.xml .idea/compiler.xml .idea/gradle.xml .idea/inspectionProfiles/Project_Default.xml .idea/misc.xml .idea/runConfigurations/Compile_lib.xml .idea/runConfigurations/Compile_xdk.xml .idea/runConfigurations/Platform.xml .idea/runConfigurations/RunAll.xml .idea/runConfigurations/RunOne.xml .idea/vcs.xml
e5d0155c6 Fix a definite assignment bug
96a119638 Move "setReachable(true) call from inside Context.merge() out to the callers
8a05fb81c Remove unused imports; typo
1738f4261 Fix a compiler exception
bfaa658ae Exclude IntelliJ IDEA files from git.
a70788872 Fix Register.restoreType() to avoid double-wrapping; resolve register types
64e1bb196 Clean up some IDEA stuff (sorry if this breaks you but Gene told me to push it)
4ab43cce9 Upgrade the jetbrain.intellij plugin version
3cdc1f0df Remove an unnecessary cast
0d9fcd922 Remove a redundant check
5ed41838a Fix a couple of inconsistencies
1eef84bb2 Fix isA() for VirtualType of an intersection parent
bc5304cb9 Minor caching optimizations to Constant
3d175ae32 Update the todo-list
70b2aef13 Fix hashCode related issues
571b2cfeb Fix hashCode related issues
1f8413286 Fix NPE
393e2eb7d Ensure computeHashCode uses all fields from compareDetails.
90e720ff8 Improved Hash.of formatting.
1b81eb5c6 Update parser behavior to match a recent BNF change from a few months ago
9568ffabf Update BNF to allow for a TypeValue syntax (deferred feature)
a770a98fb Turn build searchable options off (#45)
8d8819d71 Refactor computeHashCode() for relational types
97e260175 Hashing cleanup of costants including introduction of Hash.of helpers.
17973d421 Add basic intellij plugin (#43)
686828252 Update project files and .gitignore
98e6181b2 Turn on Mark's hashCode fix
5517a07d3 Fix the RT op selection algorithm
b6f5bc310 Allow mixins accessing protected methods
f1ca65d09 Update .gitignore
9d50ff9d1 remove gradle directory
47ccd8837 Improved SignatureConstant hash improving overall by ~1/3, currently disabled as it seems to expose an existing bug
efb98e2ad Remove an obsolete TODO
a5f5cdf3f Fix a too restrictive function type check
0948d5441 Fix InvocationExpression type resolution
9d70d4a9d Fix two compiler issues
09b6fefd6 Fix RefHandle.dereference() implementation
d9632f8c9 Revert an accidental test code submission
dd32c2eba Fix bounds error in List.indexOf() and List.lastIndexOf()
f7ccdd9a1 Remove auto-narrowing from types emitted by RelOpExpression
8590d0db0 Update project files
18d6da378 Allow tuple-based multi-lvalue assignment in "for" loops
41e14b3ee Add a default xec.cfg
266c41198 Fix a compiler assertion
8fa5ad815 Update project files
ed00385d1 Fix a bug in String template parsing
2d29ea178 Update project files
9c631873e Merge pull request #42 from xtclang/jackson-new-intellij-plugin-directory
951bc51a8 text
c6f6aaa02 new directory and readme
22f83fa0f Update the todo list
0ab308dc5 REmove unnecessary type qualifier
049f83e66 Fix TernaryExpression type resolution
0e8b8cb40 Fix mapIndexed() signature
84883e481 Simplify use of "resolveAutoNarrowing" API
1ea51fbca Fix access related issues
54d0ee353 Fix the leaks in OpInvoke and xConst
f6c6fdbd9 Fix the leak in LockalClock and NanoTimer
71c28517b Fix native Container.kill() placeholder
1d0877290 Add a native Container.kill() placeholder
affad488a Trivial refactoring
34303505f Simple refactoring
98b32c1c6 Mask DBObjectImpl handles returned via the auto-generated client
43b0cc678 Avoid writing unnecessary "$type" metadata
6b60c6551 Prevent unnecessary "immutable" type modification
e397bf5f6 Make tiny optimization
a91aed6ae Get rid of the old way of specifying access on a named type
3071291dd Fix an NPE
e75bef089 Minor edits
69ac7296f Fix handling of "ConditionLists" in "if", "while", etc
d36582028 Add a negative compiler test
d6ac1e42e Refactor And aod Or Contexts
f40873916 Add the "branch" info to updateLValueFrromRValueTypes() API
bef66ecdf Minor edit
dc9e65f52 Add URI matching support for query params and fragment info
39651d5b6 Minor
15949e995 Add new example of Async behavior
4b7f7c843 Eliminate excessive pointer usage in JSON serialization
9103cc909 Fix the compilation bug referencing singleton class properties
e3a2fcf12 Fix missing pointer check
e068acad2 Fix bugs in reflection-based serialization
b8346c83d Fix array deserialization not advancing when lookup by pointer is used
ea0d8ca30 Fix pointer logic when reading JSON arrays
83d7de60d Fix NPE in compiler
2586801fa Improve the debugger's behavior after the "R" command at an exception-based breakpoint
8d70e774c Relax "revealAs" limitation for struct types
217e78154 Fix native LocalClock code
48886a8d3 Trivial - typos
c3a2f71f5 Fix Uri path, handle UriTemplate PathSegment parsing for multiple variables and exploded (list of path segment) variables
83e9ba123 Change Uri to use String for path (instead of Path)
2e2219bc1 Fix a native NPE
ca5305804 Add URI template support for paths
fa35159c6 Add a comment
f61bcb6c6 Remove old TODOs
d9a21c23f Trivial
4b6e1f8ff Improve Xenia.createServer() API
801fe71f4 Change Xenia.createServer() API
e7bcab233 Add testFit() to FileExpression
f5449076f Fix a number of Var related instruction ordering issues
72cddcde5 Trivial refactoring
b798b8824 Trivial refactoring
060562f1d Update the doc
774ea454a Adjust to the Parser changes
797c85ef2 Trivial refactoring
6be7a52ba Trivial refactoring
ee3618381 Update the ops file
3793d0116 Introduced TransientThreadLocal optimization for non-static ThreadLocals
d68babe21 Improve type inference and error reporting for path (and derivative) literals
7030f8f85 Improve HTTPS support
e8e3ee503 Update the doc
6f6e486d3 Fix a typo
55c652b8a Improve the debugger
285c30688 Add HTTPS support
67b15370a Change the Protocol/Scheme constants
5b3e169cf Simplify Console API
ea0b3ba0f Remove unused import
20c916bbe Add a Catalog check for duplicate endpoints
daccabebf Fix an NPE in "eval" command
0a1fe4866 Move UriTemplate to "net" project
d921503a9 Camel case the URI to Uri
724114a0c Redirect back to "real" URL after processing the "xverify"
d477773f6 Do some TODOs
ad46c766b Remove an unnecessary TODO
7a6f4879a Update "hello" web test
bcd73fea2 Houston we have lift-off
06a346763 Update the doc
b5d06b06a Ensure uniqueness of the system service path
3a9ff7048 Fix minor session cookie bugs
fcec3fed0 Adding "system service" and redirect for cookie verification
5ade9a874 Allow an empty tuple return in leu of void
a40425f05 Allow the compiler to re-order method annotations if necessary
1391c667d Improve type mismatch error message
3a96f0647 Update the todo list
ea964972e Archive a couple of interesting tests
b10319d02 Rename a property to avoid the confusion
4c122131e Improve the compiler check for annotation applicability
43b749aa1 Fixed a CCE in native code
33e325ce7 Implement native support for Boolean[]
702a41a37 Rename SimpleResourceProvider to BasicResourceProvider
7d66a3bfa Make endpoints to inherit Produces and Consumes from the service or app level
8de0205e6 Make the compiler to create a target directory if it doesn't exist
15bceb8ee Rename native RTServer2 support
b34f99046 Rename native RTServer2
8a0765d42 Get rid of the old native HttpServer
8512d33fc Add lib_xenia to the build
df42895cf Move web2 source to lib_web
c6c5be297 Delete web v1 source
492e87d2c Temporary comment "redirect" TODO
72c0522b4 Add "text/plain" codec support
b8ded3fa6 Fix "root" matching
6dc9eccc5 Fix the routing logic
bbd59313a Fix the WebApp tls flag computation
800c01987 Add the tls support to HttpHandler
6bce40994 Add session cookie creation and versioning
683968668 Make a post-review changes
862207cea Merge in web2 project before merging into web project (WARNING: BROKEN)
0afdc61e9 Check for colliding WebService paths
6b150acc4 Create a ModuleGenerator for web apps hosted by xenia server
52ba5794b Fix the run-time file structure linking algorithm
493200225 Introduce a SimpleResourceProvider
42e0cafbd Fix the build
a7820f39b Simplify oodb ModuleGenerator
034875041 Change FileTemplate.getModule() API
0f4e95cd6 Fix a typo
57277ada8 Update session API to support session forking and merging
ec951e01d Trivial; add a doc
534ec9beb Fix a bug in ListExpression.resolveElementType
137bdc2a1 Add a check for endpoint return types
1bc2ae993 Optimize call chain creation
6f4888790 Fix native makeImmutable() implementation for functions
8b880c3f6 Replace a native assert with a natural exception
4a74ea7b2 Freeze Request.queryParams return
309b8b35d Fix native TypeTemplate.annotate() implementation
df76d53d4 Fix the doc
7b62ee315 Implement QueryParam support; change the "into" for structural web mixins
ec2be47be Add a soft assert for adoptParameters() implementation
f63c16817 Fix a compiler assertion
034fbdade Fix an assertion in compiler caused by Bjarn invocation used by TraceExpression
f39e94f97 Add a compiler check for mixin compatibility
ddf7c2ff2 Fix the compilation
d6492f926 Fix an assertion caused by incorrect TypedefConstant.containsUnresolved() implementation
72390c18b Fix generateResponder() logic
b9f8bdc10 minor fixes and TODOs
0b086aad4 Should not use "name" as a property on an enum
fc0354d73 Add a TODO
8aaeab11c Plug-in the registry into the Dispatcher; precompute the Responder
e622f04d5 Pre-merge of web2 -> web
7ce576e01 Fix the AssertV handling of unassigned conditional values
4eeac9d39 Remove unused imports
7505dab9c Add the format name to Json MediaType
a67d80bc7 Fix the NarrowingFormat implementation and use it by JsonFormat
6a664b283 A Format that "narrows" the type of another format
2d10145b4 Add toString() implementation (string is cached)
c36c83d39 Work around Tuple hashing limitation
129a9c0e8 Add new composable codec->format and format->code implementations
be102e339 Minor fix
88610f97f Add new Converter-based Format
2ddf0ceb5 Add new Converter-based Codec
7a8482c94 Remove unused import
e6f0b59a6 Allow non-qualified access to singleton class properties
69ac068ab Open a "desired functionality" issue https://github.com/xtclang/xvm/issues/41#issue-1391165831
968b46185 Implement native Int128 constructors
acdfd7027 Fix NameExpression handling of typedefs
4edd08527 Merge remote-tracking branch 'origin/master'
1da278adf Update session cookie support
7c05dc90e Fix OutOfBounds exception for "void" returns
9db175dbf Make SimpleContext more robust to invalid file names
7b24016aa Improve the SimpleContext logic to detect the files' media type
8c3492543 Shorten and simplify cookie consent string
e255bc3b7 Improve Path API argument checks
2a1c8bd3d Minor fixes.
fd155036a Fix & test CookieConsent
989b77325 Sort the endpoints based on the UriTemplate prefix
308ebcd92 Simplify the Dispatcher by sorting the WebServiceInfos based on their paths
584ab352d Fix an assertion in native bindTarget() implementation
8f3225049 Fix an NPE
cddfbcbf0 Improve the Dispatcher routing logic; change createServer() API
8dcea168f Change StaticContent constructor
db80027c3 Fix an assertion in debugger
2398feeb3 Move StaticContent mixin to root package
290a2c78e Update web2.StaticContent
97ba02d2a Fix ClassStructure.findContribution() logic
195c24a76 Registry implementation and misc web support
a7bc54a36 Update the todo list
77cef0c84 Update the todo list
64a0b5045 Fix a concurrency NPE
46281f8cc Fix the method declaration logic to avoid registering annotations prematurely
4e8f46277 Fix the native impl for Class.canonicalParams
02bca1241 FIx an exclusive range support by the switch statement
5feab3803 Minor clean-up of Base64 options
464e07846 FIx the compiler assertion
fcac09af1 Add Base64 support via Format
34c4502ea Minor edit
71299d702 Fix StringHandle.toString() implementation (for debugger)
a4b13b690 Minor fix for native byte array
e47a26c24 Minor debug layout fix
e68661c51 Fix a minor type resolution issue
c1aa262d5 Fix the run-time virtual invocation issue
e02582e9e Fix the platform build
0671dd6a0 Fix support for endpoint "Session" arguments
251991c69 Fix a bug in the native Tuple implementation
a4a5ada88 Mock up session id support
f587d2986 Remove the assert
d96b3f4e9 Fix the defaultEndpoint handling by the Catalog
4e3e63580 Implement SessionProducer
f2243e7c8 Fix the UriTemplate.ROOT to match "/"
27155c84d Fix fromClass() and annotate() native implementations
abc57fd14 Convert JSON Codec to Format
301bb8d97 Remove unused codec
c8be4908c Implement Class.mixesInto() API
82b7f49ba Fix the build
4e3e665f0 Make response immutable
1afb427ca Fix Catalog creation logic
d7c5ddb0c Trivial refactoring
01ce1fdb9 Fix the platform demo
90a3213f7 FIx Class.annotatedBy() implementation
97bff3f82 Revert to using InputStream/OutputStream instead of BinaryInput/BinaryOutput
91f6a4b65 Add format name to MediaType
b01a6c23b Trivial formatting
0f0ae6965 Improve findMethod implementation
77e6bf0ff Adding Codec back in
137fe650e Introduce web Converter API
34997eaeb Display the "-help" message if "xtc" is called without targets
254c4129c Mark a method inside of a function as a function
656a87a9a Fix a compiler assertion
13fdb1a63 Clean up CaseBlockContext
7f62d62b5 Use Destringable in BasicFormat; use BasicFormat in Registry
d29615a2a Add Destringable support to URI and IPAddress
ceb56b2ca Fix the native FP constructor
c3b376207 Add Destringable support to Path and Version
865780e17 Add Destringable support to Char; add TODOs to test
bfda93590 Improve Duration parsing
7dc7cd492 Minor improvements to Range
46fcc3910 Add "from string" support to temporal types
5e75024f8 Add REVIEW comments
35105ac0b Remove fixed TODO
53f53224f Fix Format.forType() API
28ba7f2a1 Trivial
f7f0cfc07 Allow annotations for functions and constructors
99c8ff6d4 Add "from string" support to literal types including String
1f36ad385 Fix the native IntNumber constructor
b58990a46 Add "from string" support to numeric types (TODO native impl)
d725dbec4 Add "from string" constructor support interface
587d572a1 Add clzTest() helper
51b104ee0 Allow formal type construction
8d68ad84f Remove debug code
505945732 Add three new operators ("..<", ">..", ">..<") for range expressions, and remove previous "[..)" exclusive-end range operator
9f514848b Add a compiler check for missing @Override on virtual constructors
0a787d253 Fix an annotation argument resolution bug
acfca7023 Add a comment
62f2cb41f Update Registry; add TODOs
8bd8b4cbf Fix native Char constructor
8de586e9c Fix URI matching fix
04f806bb7 Fix URI matching to disallow leftover path information
089f523ed Minor TODO GG comment
27f71be59 Add routing to Default endpoint
c8a4bf7a6 Fix compiler's check for mixins applicability
ac14d854c Add Nullable Format
45683e0e6 Fix an assertion
26b7ca2a7 Fix an NPE
ff6df6664 Make addImplicitTypeParameters() processing not to depend on the order of component appearance
2db40a762 Add lambda-based Format implementation
1aafcfcb2 Reduce cut&paste of obvious imports
efaf26ad3 Unify and improve isInto*Type() API
f7a58631b Trivial formatting
9e2d7e954 Fix an assertion
e7ecbc18d Fix an intermittent build issue
835e67cb3 Initial format support
ad1973631 Fix the build
175dee423 Trivial
f829f39c7 Trivial
f82d7d266 Trivial
5de34bf85 Refactoring to add Format support to HTTP codecs
3db6a9a34 Optimize Decimal.sqrt() implementation
3a57b797e Fix the build
97525197f Recursively scan packages for WebServices and Sessions
ebe32a35c Make "Hello" webApp work with "web2" API
86bb507d2 Fix ObjectHandle.makeImmutable() for GenericHandles that include "outer"
07e3abcc4 Fix native Decimal support
e913a3172 Fix Dec number comparison
c04fa660c Replace header name literals with constants
869d943c9 Minor doc update
9fbc44bd4 Minor doc update
3b9e210a4 Update some post-review changes
54d292811 Fix simple URI matching
274ef63cb Make IdentityMap freezable
2ec831621 Mark "entries" as Unassigned
937213b90 Fix relative path parsing
1f025abc8 Fix native invokeSend() implementation
568efdfdc Add a RequestInfo to the SessionImpl contructor
250d20c2b Stab out "containsBodies" implementation
05e6426ef Trivial formatting
35fe695e9 Change the WebService "path" argument type to String
1cd894ee8 Fix an assertion in debugger
9eef9d3ba Rollback a part of the previous change
4ac26e614 Pass WebService path to EndPoint constructors
9bbd986f2 Fix an NPE
31d64b7d1 Fix the WebService declaration
3b4c9d55f Add the Catalog computation, a number of missing property initializations
f78017174 Add Class.annotatedBy() helper method
c9c248f0b Get rid of unnecessary native methods
858db7b81 FIx MoveRef op to use the revealed type for "A_TARGET"
b818e624b Fix ComponentTemplate identity comparison
701b35dda Fix RTPackageTemplate declaration
b20f06f0c Update the Handler signature
9ea4a9bc2 Finish the catalog creation logic
8cd28b648 Fix the Handler API
296bc9678 Fix a compiler assertion
697c8c16f Set the webApp property upon a WebService construction
4a3e87c20 Minor fix
3c381d719 Update the doc
3fdca1f9f Finish the "steel thread" implementation for the Dispatcher.dispatch()
4b13b76f1 Fix HttpRequest1#entries.calc() implementation
4e37b8269 Plug in the SessionManager
63a080b1a Implement new HttpServer API (native)
7a330b8d4 Move Catalog to "routing" package
b314566ae Fix "allocateBundle"
e5ba79c87 Update Request and Response implementations
ad9b88aa0 Simplify "route()" impl
7880ed649 Add simple response implementation
6c4611830 Introduce session implementation (WIP)
77c445964 Introduce the BundlePool
7cb85932e Update todo list
7e5017b34 Implement Dispatcher error processing; fix "isBusy" state handling
416233f92 Change "handleUnhandledError()" API; add WebApp to the Catalog
345277104 Fix "collectInterceptors" implementation
24a76f2f4 Update the error handling implementation
d66a0de70 Update the error handling API and implementation
85a5b4da1 Another update to error handling design
576ba7c08 Clean up error handling design
d8929b20e add TODO comment
cab35086d Minor prep work for session implementation
f45edae16 Remove unused interfaces
7da4f1969 Minor update
2e6960898 Add IdentitySet
eea7de025 Improve error reporting by preserving the errors order
af1748ab2 Add an unnecessary type qualifier for readability-sake
9295d8e42 minor fixes
273d8743b Create (temporary) RTServer2 API for web2 duck-typed HttpServer injection
c27da1070 Post review changes
6a2404306 Adjust the HttpHandler API
7ae7bff83 Refining the HTTP/1.1 request implementation
d613d3755 Introduce HTTP1.1 request implementation based on native web server
4cf3a1d18 Pretend that previous stupid bug did not exist
de3c0dd06 Add duck typable RequestInfo
0998290a1 Expand injectable HTTP API
bd150b72d WIP - Xenia server
9d86ccbaf WIP - Xenia server
5f11cb10a Add comments
2ec7384d6 Update the Catalog API
216ec65ed Remove unused test package
a5802ce40 Minor refinements to range checking
3446d5c7d Allow imports to be "leaked" across the file boundaries
bf65e0626 Fix a build regression
eb63b04b0 Added explicitly empty "accepts list"
8fea6cf08 Remove Server interface
86497c376 Move HttpServer to Xenia
0a0364f4e Minor comment
d2fc94d1f Update the "web2" API
ad747e64c Web API changes
6a460331c Resolve the property name conflict between Consumes and Produces mixins
d4f8d29e4 Allow composition of Method and Parameter mixins
65c19fd95 Fix the doc
d8d52d3a1 Add default extraction value to String.extract()
b6517ab0c Add a compiler check for redundant annotations
3e4054e14 Add annotation validation for class, property and method structures
ab6191845 Add element extraction helper for delimited strings
8fcedbdb7 Update doc
4f24832ec Fix an assertion
adf7b8911 Update the "web2" API
099be0c6a Fix an assertion
b51d75429 Fix case insensitive endsWith()
5775c1d8a Fix the compilation of function calls on a Singleton class
41f30b814 Add case insensitive helpers
db8c165eb Relax "layerOnTypeParam()" validation logic
4b5552bdf Update "web2" API
f93fc9c43 Fix the "Collection.add()" usage bug
805e2a953 Allow injection via duck-typing (prepare for HttpServer to be removed from lib_web)
c43a71940 Fix an assertion
de84b4204 Refactor injection API to prepare for pure type injection
66cf129b4 Introduce CookieConsent
628bea354 Cache String hash value; use entire String contents for hash; add case-insensitive Orderer
c2e707c2b Fix a CCE
16ad8cbdb Hide the actual native service name from displaying
2bfcb6461 Fix a run-time assertion
189d5a427 Improve the native injection support API; prevent _native.OSFileStore discovery
1a55567e0 Remove an incorrect TODO
3d86207a8 Introduce a WebServer implementation library
f6005c2f4 API changes
4bba0f560 Update doc (minor)
f2337201e Add "Bjarne lambda" support for properties
2c16a51ba Remove unnecessary interface
9e420e071 Update doc (minor)
f248a623e Fix a regression in xConst
5590b7b57 Fix an NPE in debugger
887b95377 Remove useless gradle build files
b933de055 Update URI template doc and example test
391c7eb88 UriTemplate implementation (minor improvements)
47e41f915 UriTemplate implementation (continued)
df2852e3d Remove unnecessarily strict compiler check
de73a6e4b Remove a rejected TODO
93375ee1e Switch UriTemplate implementation (wip)
c457f592b Add matching support primitives to URI
022f16763 Allow private property name collision
45489c7b9 Make stack overflow check deterministic
5d54d3529 Fix Ref handling for non-inflated properties
ca80479c1 Change the covers() method to test "covers" instead of "intersects"
d60d3244d Fix an assertion in CaseManager
a91c3b596 Move a TODO to the GitHub issue tracker (https://github.com/xtclang/xvm/issues/38)
ee0f17e4c https://github.com/xtclang/xvm/issues/38
ff9ed6a1d Avoid using "readLink" by the gradle dist-local task
db881b802 Minor updates to API design
20f86bddb Simplify (temporarily)
d2529200f Attemp to fix static field initialization issue in Java
e5b328426 Add CallChain.isEmpty() method
898fa8549 Fix P_Var opcode implementation
c985dc8bf Fix handling of misses by ensurePropertyGetter/Setter
e37816d56 Fix findNestedMethods() method
d26f951c0 Optimize findMethods() algorithm
adc2aaeff Optimize findNestedMethods() algorithm
845ded0db Fix a bug caused by immutable List mutation attempt
fb0d6e943 Add missing PropertyCallChain method
5823d2617 Fix an assertion
ec0a32725 Fix an infinite recursion bug
033e814f2 Make compiler to verify the TypeInfo for struct
409d03a0b Prevent an op-code exception to bring down the runtime
a72a287cf Updates to API design for web framework
34252da52 Replace a native NPE with a natural exception
7137e2b49 Updates to proposed HTTP Server API
b86653981 Updates to proposed HTTP Server API, simplifying
f8a41f0c2 Updates to proposed HTTP Server API
73f1660c7 Improve RelOpExpression validation logic
b9d39f9dc Update todo list
49259db68 Minor update
a682b77ce Fix an NPE
90d107bd7 Updates to proposed web APIs
1e51bd304 Add "Bjarne lambda" support
866b6531a minor edits
c8689ccef Fix compilation TODOs
4a6c6fc20 Fix a conditional multi return
af90acd94 web API WIP
d55c914be Add helpers for dealing with ASCII letters
7621d8dd8 Add separate validation helper to allow avoiding exception in constructor
8cbac6957 Implement the "eval" command
7b4f5abb4 Trivial refactoring
bba02a1bf Minor edits to standardize multi-line formats, and minor fixes to the same
dd9bc122a Add lifecycle information (to know that the session has been destroyed); update docs
366b102ee Explain approach to (not) storing leap second information
22c2c72a1 Improve native ExceptionHandler.toString() implementation
c2a5081e8 Add support for leap second to TimeOfDay
4db8347ff Fix a typo
56f16f003 Simplify constants
9ef7f59cb Refactor RootContext as a static child
548ed1419 Update the todo list
14a08c047 Introduce NameResolver interface; extract ResolutionCollector from Component
a5ca4ae21 REmove a fixed TODO
e0f8881f4 Introduce an "exhaustive" testFit option
cf305ead7 API work
957ca4e3c Improve element type resolution logic
010ff0d1c Add a compiler check for abstract singleton class methods
c4d8dd405 Trivial refactoring
e00ffeb0d Add run-time support for @Future Tuple
472746a9a Refactor FutureHandle API
4f998507b Refactor CompletableFutre exception translation logic
8e271e7c5 Update the "todo" list
59b6e9a15 Fix a Tuple assignment issue
63ff9e165 Implement NameService methods in a non-blocking manner
1839aa111 Fix the build
9db6f1132 Fix an NPE
73056c73a Fix the timestamp comparison bug
1d6560e25 Fix method info for default methods on re-based types
37c8d18c9 Enhance SimpleLog API
7e2a8f4db Fix a regression caused by change at 7/13/22, 1:47 PM ((Fix an assertion)
1eea0ce6c Swap usage of "union" and "interection" terms
ef56e2d17 Make the test shorter
82f8fa779 Add support for non-blocking IO; implement non-blocking file operations
32170bc36 Remove unused imports
350549055 Improve TypeInfo computation for IntersectionTypes
8d258f58d Add a trivial test; post review comments
4f567fdad Bring Lexer.x up to parity with Lexer.java
302361af6 Minor updates to some basic types (Bit, Char, Nibble)
7dc54308f Fix a bug where conversion was first applied without checking the conditional result
19db75c3e (This was supposed to be part of the previous commit)
6caf47bd1 Improvements for String rendering
eedff6572 Fixed duplicate toUInt8() when there should have been a toByte(); added comments and formatting
57814a11d Remove the unused "and not" operator
c1d5cb782 Implement log file expiry policy
5062fc97c Fix a typo
3467703fd Fix an assertion
0ce04ca58 Trivial post review Char API change
c24d01a15 Implement size-based log files roll-over
6643d76ce Simplify the CounterDB/Test
c0d0ddcd2 Update IntLiteral to also handle all integer literal formats
2b8356871 Finish "TODO" in LiteralConstant to handle all integer literal formats
59c455578 Trivial refactoring
d2580e288 Add manualTests/data directory to ".gitignore"
6ecf0f3d7 Fix a compiler issue
cacaeb6c3 Divine the module name and location to compile
4fa0ef609 Fix a typo
30097fcbf Divine the module name and location to run
8b307cfb3 Remove unused variable
dac992655 Allow standalone (console) apps to use db
010e0884f Allow TestConnector to run multi-library tests
fb30eda96 minor edit
6ce1348fb Fix linking alogrithm
9f6616673 Move Log typedef to text; add a simple impl
43ee01b55 Fix a build dependency
f73455f2b Post review; fix for multi "isA" switch
11437f3f5 Switch on type "isA" test
71610c300 Fix SynchronizedSection related bug
707a46269 Refactor LogStore implementations
b8fd75ba4 Fix a typo
a632d9237 Update todo list
ba5788c08 Minor fixes; prep work for switch changes
6ea56cd9d Make trivial corrections
697a64c37 Make trivial corrections
9eee6d356 Infer property type immutability from parent's "const-ness"
bf720ac68 Fix child container leaks
fa295ae03 Simplify the Linker API
57f1dbe88 Make sure injected services belong to the native container (-1)
8c2300d6b Archive old tests
f6f88912c Prevent _native module discovery via FileTemplate API
8635ec005 Event and doc refinement
c33364385 Fix findMethod() logic
5c7da2d78 Remove an incorrect TODO
367650ac0 Archive no longer used tests
ecdab5768 Fix VirtualChildTypeConstant computation
0413ab146 Remove auto-narrowing from constructor signatures
3a5986872 Introduce TypeConstant.ensureAutoNarrowing() API
d35b81c50 Fix an incorrect cast
e53593eb1 Fix the test
9647bfe43 Fix transient put(), piutAll() implementations
ec2b315f3 Fix "inPlace" setting for immutable ListMap
1ea5202b2 Simplify NullableMapping class
8915ec5ea Remove an obsolete TODO
6e8a9cfe0 Add ImmutableMapping implementation
9063cf545 Fix OutOufBounds exception
c2c315e2c Improve DifferenceType.simplify() logic
6303d8b8d Trivial typo
13ccb21c3 Fix the build
a55d6b306 Add WebServer shutdown API
23b876324 Ensure a clean shutdown for the runtime
b79140c5f Fix the local-dist build script
1a99d0d2f Finishing DateTime -> Time renaming change from: https://github.com/xtclang/xvm/discussions/35
85798d0e0 Increment next release number 0.4.2 -> 0.4.3
5f75d38e1 Change "Time" to "TimeOfDay"; see: https://github.com/xtclang/xvm/discussions/35
71cd9cc58 Preparation work for type changes; see: https://github.com/xtclang/xvm/discussions/36
1eb4c78a2 Implement persistent part of the Map API for ListMap
88d34449a Add a json map serialization test
e9c2a9331 Update todo list
716ff7b6d Add MapMapping for json serialization
5b366af8b Fix a definite assignment bug for multi-condition IfStatements
d6ac22be0 Fix Type.add() implementation to accommodate immutability
0d77ec7c1 Fix a CCE in run-time array support logic
dd93e974a Stub out an unsupported native implementation
e275582b8 Simplify install instructions
299e6b47d Fix an NPE in the compiler
dc2309677 Minor edit
2c5bfda4b Move the helper script to "platform" project
23ec007bf Did not work with .msi extension; works with .exe extension
163f0d0d8 Update readme
bcd58d0fc Fixing build (step 11)
e538729d2 Fixing build (step 10)
715e7e42c Fixing build (step 9)
26c6fb549 Fixing build (step 8)
1c4d58a58 Fixing build (step 7)
aec616d4a Fixing build (step 6)
0db5e26e9 Fixing build (step 5)
63ddb13d2 Fixing build (step 4)
d425faaec Fixing build (step 3)
5762e7dab Fixing build (step 2)
2e44e00f0 Fixing build (step 1)
4c8996139 Automate Windows build
dddfb43c3 Fixes for Windows (it's apparently an OS from some company in Washington State)
7b669b2aa Update stable build image for windows launcher
17ee5cb0e Add "mack the turtle" to windows launcher
74c6fb65f Supply missing impl for windows launcher
f7a35ccad Add a todo item
870b22475 Add linux launcher to install
4cec95a01 Update readme for installation instructions
88cc80e06 add linux launcher
5922b1c54 Document homebrew support
c8ca298fb Fix the build
fa368903d minor edit
8f2d67cc3 minor edit
9547b0f4a Extract the "dist-local" task from the "build"
26f14b98b Fix a variable name collision in the build
bd74fd96c Minor CI fix (Jenkins does not have a "master" reference; use "HEAD" instead)
14320df92 Checking "CI" env var, and including the git master commit hash as build metadata in the version string
7bd637a8c Adding "ci" indicator with build counter to distribution file name, and BUILD_ID if present
2da939c25 Add "dist" build target
99289036d Minor edits to readme
112289cce Fix an NPE
85a3f75fd Unify version references and update to 0.4.2
29cd54a45 Fix a regression
018520bc7 Fix the Client API
cfda10bb9 Fix the JumpVal and JumpVal_N ops (needs a clean build)
c008621ba Make xdk build to update local "homebrew" deployment
69367ad12 Added auto resolve of symbolic links (for homebrew)
c8867573f Improve error reporting for NewExpression
34dfcc794 Update gradle config file
782083e5f Update project files
94359be21 Update project files
d38f0506a Remove unused library declarations
62718ef55 Make retainTx() implementation more robust
6ab371228 Move BankStressTest to "examples" repo
6ea1a563c Update "todo" list
8b74124f2 Implement AtomicIntNumber native support
5b1b54d16 Improve comment
c36c282d0 Update the todo list
f33fea289 Add a compiler check for unresolved method type parameters
4fe399b8d Fix isA() for relational types that contain immutables
cd5f01ee2 Remove obsolete TODOs
dfaaa9198 Remove unused import
192b54d3e Fix the resource location computation logic; remove obsolete code
41ed29dcb Add universal macOS binary support
71bb59478 Fix NPE
a1afa8302 Sign macos_launcher
c2e94a7a2 Delete old examples
d30c8066c Add "todo-list" to the repo
eff65eaa4 Remove obsolete TODOs
e4151b895 Move "welcome" app to "examples" repository
a8efca666 Move "welcome" app to "examples" repository
8435d330c Move the "platform" to an external project
ecce420b0 Fix the macos_launcher
503228683 Remove old compiler bug list (all fixed)
ed9555cb9 Fix native NameService implementation to return conditional False instead of throwing an exception
ded466096 Fix an NPE
a54df946a Add compiler checks for binding methods
cba0799e8 Allow methods and lambdas as annotation arguments
83f5669a0 Improve AnnotationExpression validation
806236bf0 Fix toString() implementation for MoveThis op
f7c40db17 Change Context.getThisType() implementation
b2c3525c5 Introduce a target binding constant (REQUIRES CLEAN BUILD)
6b849942e Refactor annotation construction logic
29b2aa084 Fix element type computation for ListExpression
173985a32 Remove auto-narrowing from signatures returned by "TypeInfo.resolveMethodConstant"
79652abb5 Fix equality implementation for ShadowRegister
e5d19b35e Update "runConfiguration" project files
25bfb4378 Trivial refactoring
6a52c01f5 Change ModuleRepository.getModule() API
b3306c026 Allow the host to use natural "user-private" module repository
dc0508228 Remove a duplicate test
967cf3173 add name resolution (note: contains a bug repro)
9598b2592 Start platform topology design
3788a24b5 Reduce usage of ConstantPool.getCurrentPool() API
12403692b Trivial refactoring
be930ac4c Fix various "foreign" pool leaks
b7d9cfb1e Fix registerConstants() bug
db90c8f3d Fix the ClassComposition creation for HttpServer
38b5d1b22 Allow Database annotation
a45ca06f0 Allow Database annotation
1566d743c Fix the build
fd00a3978 Remove unused
07d9321b4 Prototyping socket implementation
40540ef71 Minor edit for error message
7d2d11b14 Fix the TypeComposition ownership for TypeHandles
d9d8d7274 Make the static property immutable
973b24817 Fix singleton handle construction algorithm
cbb7c04cb Trivial refactoring
0b13ed33e Make innerTypeSystem a Container.Control property
b9df91616 Fix the compilation order
2a5a94858 Fix FileStructure.merge() implementation
ce1b1d023 Trivial siplifications
996f812eb Removing duplicate classes
6ad12c3ee Gradle update
131052c4b Simplify VarInfo type resolution
fe7ea25f7 Add an assertion
d1bc2b9d8 Simplify MethodStructure.getAssembledOps()
56dc20f77 Avoid caching constants from other pools
11b25fa3e Simplify "ensureAutoInitializer()" API
f898ec3ec Fix a "foreign" pool leak
ed55c5732 Trivial formatting
800fe882d Minor prep work for channel implementation
08f9fc074 Minor changes from code review
54f64136e Minor module simplification (from code review)
dc256125c Fix an NPE
2d9c90100 Make the natural compiler re-entrant
39dc786e2 Fix the disassembly logic to retain the "modified" flag
938437ee5 Update Channel prototype
9be314119 Minor updates for Channel support
b9f03b5f3 Drop the current frame upon return
66eef1de6 Fix the run-time core repository configuration
6b962b0d9 Add Mack project
8ebae26ca Make a temporary workaround for a bug in isA()
3744cd0e2 Change natural ModuleRepository implementations to be services
abd5fc17a Trivial refactoring for future changes
85ab7c267 Updates to Network APIs
e6d4bc458 Add transferable native buffer support
92eaf50cb Fix an NPE
afd18c51d Improve an exception message
15eacb5d4 Simplify "linkModules" implementation
099f1b2e9 Add IPAddress property to determine if the address is a special "any address"
98e76fed1 New IOClosed exception
ffd5e2e1a Minor doc fixes and improve assertions
a25672321 Improve assertions
741b217eb Minor doc fix
16e5283e1 Placeholder for KeyStore
dc4d9bdf9 Split out a minimal "mack.xtclang.org" module from "_native.xtclang.org" for compiler and runtime bootstrapping
ffcabd17b Add DirRepository and LinkedRepository implementations
f96db4064 Move InstanceRepository to host lib
78ff78126 Store ClassTemplates and ClassCompositions in the corresponding containers
7e44eda9a Fix a typo
6e8d16dcf Trivial refactoring
469a106fd Make trivial optimization
33e3d9c50 Soft-code the default web page
fa1c03613 Make a couple of small demo changes
362b49510 Fix a codec.encode() call
2958242af Trivial refactoring to Java 17 style
001e1d52f Trivial refactoring to Java 17 style
4e6bc57f8 Refactor ClassTemplate creation around Container
f6115225f Add regex test to the suite
8a8f32305 Reduce the usage of OpSupport interface
9d6430411 Create Welcome web app
0412fa4bf Rename CoreContainer
c4a0eb0ae Trivial refactoring to Java 17 style
dd975afb2 Fix CPDirectory implementation
fc97ad155 Fix StaticContent mixin support
1f7782d9d Fix an assertion
5bb2557af Fix a typo
1fe93c113 Allow '-' in file names
37cd64701 Minor edits
8bbe21d22 Move an old test to archive
f56de5c0b Fix CPDirectory.find()
dc350ff19 Fix TypeConstant.collectMixinAnnotations() logic
9ec32c1c3 Add "illegal extends" compiler check
c5369c075 Fix the exception handling logic in Controller.load()
f884c76db Fix the wrapping logic in DirectoryFileStore
9f6886532 Fix the issue with calling constructors via reflection
1be95a1d8 Fix a compiler assertion
b8ea13193 Compensate for closing issue with created, but not started http server
7b12bc417 Fix a bug in Call_0X ops
513eefff5 Archive no longer used tests
f426ec45d Refactor db tests
2a35bf2ff FIx the DbInjector logic
8e1446fe8 Fix "foreign" type handling by native Type operations
874fb0c45 Trivial - typos
d70ffbc83 Remove a rejected TODO
e9278dfbd Fix the compilation assertion
6c442aff9 Add "crypto" and "net" modules to the build
f263c49a6 FIx another compiler assertion
78eeb43de Fix a compiler assertion
e3b6ffec5 Minor edits to get the library to compile.
907a5302f TODO for GG
a3a9f7c9d Minor fixes to get the code compiling
7a8783445 Fix a compiler assertion
ffc81933f FIx the DbInjector logic
1d65ec45f minor edit
2fa6c506a Introduce the network module prototype
3dcb6fb69 Introductory doc for the crypto lib
2c4909970 Prototype of the Ecstasy standard cryptographic library
aa21607c4 Allow non-shared TypeHandle proxying
1b497551b Refactor host/platform
960878c80 Fix Collection.estimateStringLength()
e855b7905 Rename hostWeb to hostControl
9d1f528ed Introduce "platform" API and extract it from "host"
437dcadb0 Add BufferProvider for cross-service buffer management
0bf9ed287 Add helper methods "findAnnotation" to Class and Property templates
c186ba40b Fix a compiler assertion
aff5a3049 Make lib_host dependent on lib_web
3de67f0dd Simplify http query handling
d083277f6 Fix the ListExpression type inference logic
133a31fe7 Add "esnureSetType" helper
3e5a52a30 Improve the prototype of hostWeb
be6e6824b Improve formal type resolution logic
397c58f96 Add HTTP session interface
abe2c06e1 Minor fix
d5aa707fb Add a meaningful exception
eec87463e Avoid type sharing check unless a container boundary is crossed
16b965419 Fix the HttpResponse constructor
b65645f2f Prototype hostWeb using HttpServer injection
61a57623a Trivial refactoring to Java 17 style
b524d4996 Make fields that are services "pass through"
518b37b6f Fix OpCallable.checkReturn* implementations
6b1d81dfb Fix (stub out) proxy rendering in the debugger
27ce0ce3d Fix the "collectInjections" algorithm
8a6fa7500 Fix a regression caused by the change (Move injection handlers ... 3/24/22, 5:23 PM)
3ca35e103 Fix property getter/setter behaviors
38ba536c2 Fix a bug in ClassTemplate.setPropertyValue()
d67ac1c06 Fix LaxyVar behavior on module
0c2fc910a Fix "attachHandler" implementation
8a6683a83 Fix an assertion
c234f2ff9 Fix an NPE
f9390eea0 Remove URI from implicit names
4703f930c Refactoring web interfaces on the side
529710b41 Fix code generation for abnormally terminated lambdas
9574dcd80 Make Assignments and Lambdas TODO aware
851aff3d6 Move URI to "web" module
bae8d72b8 Fix ThrowExpression.toString()
2ab735f39 Add a check for funky interface method overrides
a2e25bdac Merge remote-tracking branch 'origin/master'
6d33e5eeb Refactoring web interfaces on the side
b9e380800 Move injection handlers to corresponding templates
5ead84148 Remove incorrect assert
01103cc19 Fix the build
8ca2cdd97 Move HttpServer related classes to web library
7e398086e Compiler was not ignoring the code after a TODO
d1ec5f63d The commented out assertion requires careful review
97ee691a2 Make "Map:" optional for compile-time constant map values
40366be68 Merge remote-tracking branch 'origin/master'
701a21717 Add type inference for constructor parameters
a5c44b809 Fix "allow auto narrowing" computation for short-hand constructors
b69905931 Minor fixes to bnf & parser
0913e8dc1 Add type inference for constructor parameters
173e2bf69 Fix "allow auto narrowing" computation for short-hand constructors
e70de994a Minor fixes to bnf & parser
0768b7627 Add support for duck-typed injections
aeb3a44a4 Trivial refactoring to Java 17 style
50246d6a5 Simple LRU cache implementation
73c04580c f
2726fa27b Remove an obsolete test
66a053192 Create a separate directory for web tests
415fc0477 Fix the compilation of conditional return
d17a16b01 Trivial refactoring to Java 17 style
9b04e3eed Simplyfy NameExpression validation logic
f62cfd0b6 Trivial refactoring to Java 17 style
a2b10f482 Disallow custom annotations on functions and constructors
16323ca01 Trivial refactoring to Java 17 style
84ad59903 Remove unused imports
10687297b Make Map to extend Stringable
0348f76e3 Fix a ClassCastException
b0537aa00 Fix a compiler assertion
f98048051 Trivial refactoring to Java 17 style
bbde92b6b Add optimization for method call chain computation
5108d8cda Implement native support for Nibble array
957b2a65b Make Collection to extend Stringable
e432d3e97 Fix ConstOrdinalList iterator bug
76e61bd02 Fix the build
e7437dde2 Fix "toBitArray" bug
21af54e52 Bug fix
acb415e64 Fix primitive array related natural code
0053478a4 Improve annotation description
4042357a3 Make small change to Nibble API
5c7b1dc83 Add missing native methods
5d74f0ac0 Trivial refactoring to Java 17 style
c7214cca8 Trivial refactoring to Java 17 style
179687a19 Improve error reporting in lambdas
089a624b7 Trivial refactoring to Java 17 style
e4df53777 Remove an obsolete TODO
e8eea39f3 Fix inference analysis for "for" and "for each" loops
abedd57a2 Fix inference for SwitchStatement
8f27dc8d3 Remove unnecessary code
f8b7f3b9b Trivial refactoring to Java 17 style
0f90eaa8b Trivial refactoring
babb1c03a Fix inference analysis for "while" and "do-while" loops
f10260f80 Fix an assertion during dead code elimination analysis
3b2059483 Trivial refactoring to Java 17 style
c9d91ffb2 Trivial refactoring to Java 17 style
723ff45b3 Add "emptyIterator" property on Type
12295ecd0 Remove fixed TODO
2891506ad Make @RO properties on abstract class implicitly abstract
859507364 Trivial refactoring
aef4e2a8d Slightly optimize the previous fix
5f6991fd7 Fix "adoptParameters" implementation for VirtualChildTypeConstant
069083d4b Fix ref handling in lambdas
d3111ef0e Trivial refactoring to Java 17 style
70cb150d2 Trivial refactoring
5a54dc273 Minor edit
bf9dd6561 Add HostWeb module (WIP)
5a000667a Add WebModule annotation mixin
deed21d3f Add default value to Duration
629af8465 Fix an assertion
42de20cf3 Add native "equals" impl to IdentityHandle
a27670df0 Fix code generation for "this.Parent" inside a "property class"
327e966b8 removed already-done TODO comments
5ea936fc7 Clean up copy-on-write HashBucket implementation from code review
ffa11d621 Optimizations to binary search from code review
745cc0e83 Edits and fixes from code review
b84a5d5a9 Rename and minor edits from code review
667622d2f minor edit
75c74dda6 Add new Identity Map implementation
a9fedf2bd Updates to Map classes for freezability and immutability
8899cfed4 Disallow all not-explicitly-allowed expressions from automatically becoming statements, part 2
7985e455e Disallow all not-explicitly-allowed expressions from automatically becoming statements
7cc6edc49 Improve native toString() for GenericHandle
23d9461d2 Add arguments check for service constructors
f8c2af414 Fix struct allocation API
dffe59095 Fix service struct allocation implementation
07c9766b4 Fix ConstructorHandle logic
93c076e13 Trivial refactoring to Java 17 style
79756106c Fix the initial property value computation order
3144d8cb4 Improve computation of initial property values for mixins with contributions
2813fb3f1 Trivial refactoring to Java 17 style
ef8d466c7 Improve the debugger view to show transient and lazy fields
5ad2d14bd Trivial refactoring to Java 17 style
881559b56 Suppress debugger stop on "{"
e0cbfd15d Fix code generation for the "outer" reference access
69281a951 Trivial refactoring to Java 17 style
5cb430cd3 Trivial refactoring to Java 17 style
17c2d879b minor fix
be2b1a983 Add a missing method implementation to VirtualChildTypeConstant
84f8ef138 Fix reference equality for arrays
7a2a8a67f Prevent mixin constructors to be retained by the TypeInfo
b06cae644 Suppress logging of VERIFY errors while there are any COMPILE errors
8a5025a15 Trivial refactoring to Java 17 style
6defb3f9a FIx SIgnatureConstant comparison
4e7a7b305 Remove duplicate methods
35ed2bad7 Trivial refactoring to Java 17 style
e1bfbcb20 Trivial refactoring to Java 17 style
98c1553fc Fix an NPE
b3f9a0ae2 Simple refactoring
0e16ec5ad add an implementation of iterator that has no elements
d140708a8 Minor updates to collections
a87fd9ccf Fix shorthand parameters validation
089a0af9f Improve extractNameArgs() algorithm
c2cb15b37 Trivial refactoring to Java 17 style
561d97caa Improve runtime exception message
ad570285b Rename a "host" task
2801ec567 Improve CompositionNode.Extend construction
e72c3c61e Remove unused state
b7d63e731 Replace "blocking" fiber behavior with Criticial synchronization
43f20ce13 Trivial refactoring to Java 17 style
dc2c3ab7c Trivial refactoring to Java 17 style
eef496326 Fix construction of annotations with default arguments
e2270ad17 Trivial refactoring to Java 17 style
33bc04ded Trivial refactoring to Java 17 style
d5ca980af Fix "typeInto" computation for derived mixins
0597b64b9 Fix an assertion
42502529c Revising web prototype; WIP
5c5235fdf Rollback the annotation constructor call optimization that broke the web tests
a9d927d88 Change the default type for ListExpression to be an Array, not Set
97c8f5ff6 Compute initial property values based on annotation parameters
6ede1d09a Fix the build
9454de8e2 Generic URI impl
1649f26dc Trivial refactoring to Java 17 style
1b81db511 Replace all instanceof ResolvableConstant with Constant.resolve calls.
89ed6d500 add splitMap() to String
9a62b8088 Allow "" path segment
9ac1a913d Add a missing code generation method to ConvertExpression
27bbc15e7 Fix a compilation assertion for static inner classes with virtual children
7ee0ed12b Trivial refactoring to Java 17 style
97c497762 Trivial refactoring to Java 17 style
24da6702f Trivial refactoring to Java 17 style
71388e6d7 Improve compiler error messages
e3480a445 Trivial refactoring to Java 17 style
b21629e8c Minor fixes
58cfe6b89 Fix Service.toString()
dbbb6c362 Reduce the number of "testStandardProperty" iterations
bf44418b1 Trivial refactoring to Java 17 style
6b869c6f7 Improve debug output for Char type
472d14642 Merge branch 'master' of https://bitbucket.org/xtclang/src
555f41529 Roughly doubled property getter and setter performance.
f4811f296 Fix conditional assignment from non-conditional target
53e4dba53 Fixing conditional assignment (code production TODO GG)
fb7f2582a Fix "this:super" binding bug
b5ba87821 Trivial refactoring to Java 17 style
338aa4f44 Replace "mutable object" exception with "mutable return value"
f30bf6088 Fix IsExpression code production
c8d790ed5 Fix another bug in native "contribs" implementation
740be6ca8 Fix an NPE in debugger
c9db079b9 Fix an assert
13516d606 Complete a TODO
d906e53ba Add an IPAddress class
32057a299 Fix native "contribs" implementation
e9ec20f6a Fix a doc
49d647e22 Fix an error logging along with trivial refactoring
e76795569 Fix an assertion
aa8bec32d Trivial refactoring to Java 17 style
db5cbaaec Fix async functions pass-through validation logic
d797edb1a Extract Injector service
ec8aeceb2 Trivial refactoring to Java 17 style
b4cd0d97b Remove unused variable
a88819c76 Trivial refactoring to Java 17 style
e157b1913 Add "debug" endpoint
0153d4517 Add natural FutureVar.toString() implementation
07ecefaae Trivial refactoring to Java 17 style
c0ec29052 Fix an assertion
04cca5ff8 Fix native HttpResponce hadling for body-less responses
6ca0b1a7b Fix another regression caused by imported package calls fix
88213c91b Fix a regression caused by imported package calls fix
807c0a1dc Trivial refactoring to Java 17 style
971a07dff Implement basic hostWeb API
63e2f66ef Fix compilation for imported package method calls
523c93b66 Fixed bug in assertion text
34c308b0e Automatic IDEA change
da64f63c5 Add a missing class
6259d8cb0 Refactor "host" module API; add "hostWeb" module
849788de8 Minor edits
b1acde0dc Adding some TODOs; removing unused file
4070559de Simplify HttpMethod.fromName()
6a3a1ddac Simplify internal host API; get rid of "hostAll" command
377827134 Adding some TODOs
acf99e890 Simplify db code gen
22111fe81 Minor edits
4aaa4b6de Fix Duration.toString(iso=True)
71fb111a0 Add DBLog configuration support for expiry and max size
d30042c96 Improve compiler check for const arithmetic expression bounds
5c08b68a0 Fix an assertion
a068fe42c Fix an assertion caused by injecting a "foreign" const
791538435 Minor edits
86b1e1223 Minor edits
7d3915043 Add default values for floating point types
6c1fc6890 Improve recovery logic
885932bd6 Trivial refactoring to Java 17 style
2bfbea64c Trivial refactoring to Java 17 style
950dba492 Trivial refactoring to Java 17 style
46a079ac5 Fix OutOfBounds exception
3f53e6dcc Fix native Array.slice() implementation
dd29c79fb Fix native Array.slice() implementation
bebbbf917 Trivial refactoring to Java 17 style
e5a091a53 Trivial refactoring to Java 17 style
f2014c110 Add missing isShortCircuiting() implementation
52058e8d9 Minor doc edits
89a6c11ca Fix the web.x test
42ac3d479 Stupid typo I missed
dfef12102 Applying fixes to main branch
3679588b9 Update gradle.xml to match build.gradle.kts
d24cf4fa7 Fix a few project references that got missed
77a69a8e8 Merged master into web
53f2f7572 Finishing organizational refactoring of various "javatools" projects
804a83a19 Trivial refactoring
afb06450d Update macOS specific helpers
408225097 Change auto-gen code to new module organization layout
f8f735d22 Allow usage of "super()" statement in constructors
1be2957e3 Fix an error line number output when running in IDEA
d9e9eb4f8 Fix a couple of typos
301ce2898 Refactor lib_web to the new file and directory layout
13cfc8b6c Hard reset of web branch on master and re-apply web server refactoring
2d30e1739 Fix Collection.removeAll()
dbfb23103 Fix ListExpression validation logic
965ded467 Update .idea project files to reflect the new source tree
05675c2df Improve error messages
1f658707d Improve default handling of the symmetric difference set operation in the presence of immutability; fix "persistent behavior" operations on Appender
106d72568 Update another Github README
3806c3981 Fix Var_S, Var_SN for targets of Set type
57194a404 Replace a native assertion with a natural exception
f02831bc5 Update Github README
c95e2c5a7 Remove obsolete TODOs
4d6b90c6c Introduce "mutable return value" exception
0b3666296 Add a "warmup" run to the profile() test
5273801f8 Remove incorrect and add missing @Concurrent annotations
ce9008f9a Check for existence of console.log file prior to "cat" command
2716c300b Rearrange resolveType() code
d4550dfc1 Update README.md
be5e907a0 Update gradle.xml to reflect new hierarchy
f84c16769 Split out "Module" and "Package" interfaces (etc.) into their own files
f35225a02 Normalize project organization for "ecstasy" module
937766ec4 Re-org "host", "oodb", "imdb", and "jsondb" modules using new organizational layout
622534f05 Re-org "_native" module using new organizational layout
2199edbde Re-org "aggregate" and "collections" modules using new organizational layout
41f5c17da Re-org "json" module using new organizational layout
483cd754b Merge remote-tracking branch 'origin/master'
b0bc44515 Re-org "ecstasy" module using new organizational layout
f72694d36 Add another optimization for Frame.resolveType()
03c09fad2 Add support for new module/package directory organization
971316219 Update .idea project files to reflect the jdk 17 code level
9f37de1d7 Print "console.log" content at the end of "hostOne" gradle task
7dba8432a Implement host-injected Console as an append-only file
94854c5eb Fix a regression for running hosted apps
3959c5455 Revert "Web server refactor and adding Sock Shop examples"
f285bf61f Web server refactor and adding Sock Shop examples
7617e4796 Disallow static child classes to inherit parent's generic type parameters
0444654ad Optimize ParameterizedTypeConstant.resolveGenerics()
3132560cd Fix an IllegalStateException by the compiler
620e02776 Add description to some ReadOnly exceptions
b58a81651 Add description to ReadOnly exception emitted by arrays
caf0eae65 Fix Array.makeImmutable() native implementation
404e29924 Fix MethodInfo computation for functions
0ba0f799f Improve error message for parameter type mismatch
2de6115cf Remove unnecessary access modifiers (trivial)
dc3460678 Fix a typo
1f4bc0e25 Fix Type.createHasher() implementation
ccd58410a Improve error messages for method mismatch
abd914e8e Add a trivial @Transient functionality test
169462563 Implement @Transient support
11131ea84 Remove a trivial TODO
fffe9a9ea Fix a TODO
8c3f59f0d Minor bug fix
98b042d3d Use newly introduced "keyword" type definitions
03afa924e Fix DB tests
65baddfe4 Minor: Add @Transient to implicit.x
19548277b Document a TODO plan
69e63a5b0 Fix a TODO
678ca550f Add conditional result to IsExpression (one TODO GG remaining)
03576af6f Add support for "keyword" types
1e76a9704 Parser changes to support extended type expressions
8c31a2cfa Add assignment expression (temporary implementation)
1bda8dfb4 Add new "@Transient" annotation
4d99fe35d Avoid the debugger stopping at synthetic method's return
91380a220 Ready for "keyword type" implementation
4ec56a11d BNF and parser changes for extended type syntax
4aa1ae609 Allow classes to call into protected interface methods
c166e9092 Fix an assertion
d993d34a4 Raise a compilation error for "&this" in static context
84b5497da Fix a number of NaturalHasher related issues
680857ae2 Change source in anticipation of "as" being required in "typedef" statements
65ea9a66d Add Hashable interface to HasherMap
efd425003 Mark String.equals() and hashCode() as native
01de7c7a4 Fix native hashCode() implementation for Double and Decimal
44afa50d8 Improve collectPotentialSuperMethod() implementation
46130e557 Fix missing natural hashcode/equals impl on Int64 TODO should custom implement on all such types in the Number tree
e09338c1c Fix missing natural hashcode/equals impl on String
a58da0b09 Fix compile-time literal conversions to @Unchecked integers
edbf49b4e Add @Unchecked constant forms for integer types
c4e32cc0f Add native support for @Unchecked in native IntLiteral implementation.
34e87b346 Temporary work-around for lack of @Unchecked indicator in constant pool
3eff0a89a FIx an assertion
a06282073 Fix the build
8af56433b Add custom Replicable support to HasherMap to correctly support sub-classing
1354352ab Optimize CaseInsensitiveHasher
8c355c130 Support @Unchedked integer literals and math mixing checked and unchecked values
a49bacbce Fix error reporting for NewExpression
bab118e99 Improve TypeInfo calculation for Union types
be80401ef Remove unused imports
509c58224 Fix a regression caused by "Add type inference" submission on 12/26 at 3:56pm
95d1009ad Remove a fixed TODO
16b6f769b Add compiler reporting for missing virtual constructors
fd7cb59b9 Simplify implementations for some Context methods
836c7bdca Add type inference support for FormalTypeParameters
8a2bf02cc Remove fixed TODOs
782461cbf Reduce error reporting by ensureTypeInfo() and NewExpression
89bb7d326 Fix a soft assert
640eca98c Fix an assertion
cf7560dc3 Split out Hasher-based maps from intrinsically-hashable key type maps, and improve Freezable support; remove "ImmutableAble" interface, and introduce "Shareable" type
0ccfc3eca Improve checkConditionalIncorporates() logic
5d0f279a4 Add support for typedef imports in implicit.x file
3e75c8079 Rollback the change at 12/23 11:29am ("Fix an assertion...")
235b3e15f Improve error handling for isNewable() and buildTypeInfo()
b2e982604 Fix an assertion in Component.checkConditionalIncorporate
82a90f5c8 Improve verification error messages during compilation
6fbd1e007 Fix an IllegalStateException
36bdc0e37 Remove obsolete TODO
42d0df29f Fix Collections.equals() natural implementation
b1d95637e Fix MethodInfo.isAbstract() implementation
755a16b0b Fix AOOBE
256257327 Implement "cleanup" for JsonMapStore
ccb119a59 Fix TypeInfo calculation logic
4844239bd Generate missing Jump for "return" inside a StatementExpression
f625891ed Move MarkedIterator class to "iterators" package
65fe4cae6 Add compilation support for condition negations
d1b44df63 Further simplify key-based store recovery implementations
8de9bdecb Make OrderedMapSlice's KeySet, KeySetBasedMap's KeyEntries and ValueEntreis freezable
fcef45654 Simplify JsnMapStore recovery impl
d86b89fbd Fix an assertion
049060528 Add condition negation support for conditional assignment statements in if/while/assert/etc.
6553f5d63 Avoid logging DBClose exceptions
0c96e405b Fix the code generation for static anonymous classes
1f43bd04f Fix SkiplistMap to support read-only operations when immutable
60358cbb7 Fix an isA() bug causing incorrect TypeInfo calculation
e9f65e0ec Fix an assertion
77a860b92 Implement File equality
13e8f35bb Implement JsonDBProcessor recovery
26b817f9a Add a persistent pid counter
8500c2494 Simplify JsonProcessorStore persistent format and implement loadInitial()
88a2583fe Minor updates for the retainTx logic and doc
afafc1a2b Enable the cleanup logic on JsnValueStore
2535de230 Commenting out retainTx issues
0c4bbd4ca Add db idle detection and transaction cleanup
28c5d7792 Allow initialization of properties that have custom implementation
8ccdcc990 Simplify JsonMapStore persistent format
32c428d54 Change the Parser.skip() signature; minor changes to JsonMapStore
bf40022aa Fix the compiler bug that allowed an incorrect @Override to compile
1c17cbbe0 Remove Closeable interface from Iterator
3ee7b78b0 Allow GC to collect unreferenced services
da4f416f6 Fix PropertyInfo layering issues
9a1e20da3 Remove unused method
2dd08385d Fix JsonMapStore recovery; reduce number of store files
6f0d4a2d0 Fix assertion in TxManager shut-down
83dea83cd Update deleteAll() doc and implementations; fix CircularArray
b691a90fc Minor edit for DBProcessor example
ba493d3fc Adding partial implementation for "original" property on DBMap.Entry
8c5741275 Make minor fixes
a635de534 Fix Array.removeAll() for Mutable arrays
799b1eda4 Make the debugger "Step over" command to stop at caller's return lines
541727e04 Implement recovery API for JsonMapStore and JsonValueStore
f05019f4e FIx toString() implementation for json tokens
a860874b7 Use StringBuffer.truncate() to simplify some code
fb35d8422 Introduce StringBuffer.truncate(); fix Array.deleteAll()
786248429 Change format of json.Lexer.Token string representation
f46587768 Stab out the recovery API for testing
3901dc444 Add an assertion stack trace to investigate
aeb951c18 Fix some recovery-related issues
9f42457f8 Plug the recovery API
892d23bca Minor fixes
83af2f336 Fix the ObjectInfo generation for ROOT
165593de9 Minor fixes
2f8528c2d Minor fix
4b68fb54f Implement JsonProcessor API (continued)
9e5221316 Database recovery harness implementation
881503870 Simplify re-sync logic, fixing a potential SkiplistMap bug
f67cb82c3 Fix a stupid SkiplistMap bug
a60506d4c Fix "internal" transaction related assertions; typos
8474ad7ee Fix the assignment logic for conditional pass-through calls
f5c78e97f Correct the virtual child type calculation for NEWC_ ops
41b7cf5b0 Adjust the OrderedMapSlice.KeyIterator API
2487f9094 Implement JsonProcessor API (partial)
7e4c65977 Updates to recovery logic
6b117e3f2 Fix to close() logic
299006478 Remove unnecessary test output
35b31395b Improve AstNode.findMethod() logic
e25ab2c7e Make a couple of minor corrections
0b6bbe6be Initial layout of database recovery implementation from tx log data
11867cd1c Prepare TxManager for database recovery implementation from tx log data
7aa611ec0 Merge branch 'master' of https://bitbucket.org/xtclang/src
861b32bbc Ensured CHM.processIfPresent/computeIfAbsent get propperly deferred
dfc4aec6b Cleanup of names in HashMap's StableIteratori
1ad4075ec Fix an NPE in the parser caused by a non-existing resource
259cd0f21 Fix virtual child type resolution issue
34a16ab5d Allow mutable arrays with default values to grow by more than one item
7c94f47f8 Remove "true" "false" "null" lower-case aliases
db5a51f05 Rename some variables for MF
786d98106 Create a DBProcessor example
36cf31b35 Remove unnecessary test output
464efd4b4 Make some format corrections and comments
e8bfbf4dc Updates to stable iterator in HashMap, plus a new TODO for MF
1fe99d977 Fix parsing issue with nested ternary expressions (an obvious problem and solution)
7c047f6c9 Merge branch 'master' of https://bitbucket.org/xtclang/src
8fbb1b05e Added stable iterator to [Concurrent]HashMap
9ee06df55 Fix the guard handling by JUMP opcodes
b3d7e4396 minor doc edit
94e5f1edd Fix lambda in lambda compilation issue
15fced732 Fix the compilation logic for conditional invocation with a Tuple result
1bd1ca20f Make test output stable (diff-friendly)
3dc594ebd Fix an AOOBE
e6073b9e7 Merge branch 'master' of https://bitbucket.org/xtclang/src
e1f487b0d Fix "no call" invocation compilation bug
74768413e Fix the doc and formatting (trivial)
d2697069a Fix a performance issue related to "ObjectHandle.isPassThrough()" check
e174bc8aa Merge branch 'master' of https://bitbucket.org/xtclang/src
ecf7e8428 Minor cleanup on ConcurrentHashMap
21ea897da BNF and Lexer: Change "`|" to "\|" for multiline strings, and finish removing Ellipsis token
7a8e0e4ba Add new ArrayOrderedSet data structure (binary search)
24cb06471 Fix a deadlock caused by futures completed within the service
fc16d8e9d Add OrderedSet support to SparseIntSet
62f2ed7ac Add OrderedSetSlice to support slicing of OrderedSet data structures
d8386d54b Fix a bug in DebugConsole view layout computation
61c4a3751 Do TODOs on OrderedMapSlice
5763c639c Merge branch 'master' of https://bitbucket.org/xtclang/src
b905bb438 ConcurrentHashMap cleanup
e8ed5297c Fix a future return value code generation
7bd8c892f Introduce "synthesizeChildren" API for module load and link stage
3203f4ea8 Add lib_collections to gradle.xml
176215918 Clean up the doc (trivial)
5a5c807ad Improve native Ref/FutureVar equality implementation
b55054240 Added initCapacity to ConcurrentHashMap constructor and make Partitions.pendingByKey optional
9c0902439 Ensured concurrent access within a ConcurrentHashMap partition, while ensuring writes to a given key are ordered.
ba4f57d3c Merge branch 'master' of https://bitbucket.org/xtclang/src
3151452a4 Added ConcurrentHashMap per-key ordered async Map.process
ae5bfd8eb Fix "new @A C" compilation for annotated parameterized anonymous classes
f0df1d284 Make post-review refactoring of annotation changes
3d2b1abd7 Add "into class" annotation support to anon inner classes
66818bf63 Prep work on jsonDB for recovery implementation
c7bd7f1f3 Add instructions to bank demo
01762313c Fix a lambda compilation issue
51387c10a Fix a compiler NPE
d85a5cfa1 Improve run-time exception message
41c822525 Improved error logging to allow IntelliJ to hyperlink to the actual line
0fb096d88 Merge branch 'master' of https://bitbucket.org/xtclang/src
c7f118664 Added concurrency performance test comparing HashMap and ConcurrentHashMap
8ada964da Clean up items from code review
6f98ccb5a Update DBProcerssor Scheduler processing
ad899f29d Change PseudoRandom back to a service
f96ca79cd Fix incorrect TypeFit API uses
46eda81ee Fix for-each loop compilation for Enum values
6494278c6 Fix the fiber scheduling (causing deadlock at TxManager.disable)
abd4bb458 Ensure future operations retain the "originating fiber" information
f504c78d0 Fix the debugger concurrency issue
ea67e767b Do some TODOs
a5fb6a9d8 Improve handling of DBClosed exception
5589ce740 Added scheduling logic
45b2a0600 Fix the code gen for logical and/or expressions
b8d7a2dab Introduce DBClose exception
e6fd44e23 Merge branch 'master' of https://bitbucket.org/xtclang/src
7d63b34db Added a concurrent load test comparing HashMap and ConcurrentHashMap
c56a9f480 Add wither to DateTime
5eb264579 Add the "blocker" info to the debugger fiber view
1abf2f462 Allow "catch (Exception _)", etc.
de839ca32 Reduce map test output
9f1db95a0 Use injected Random
f6400727e Make ValidatingContext more forgiving
8c74629c9 Fix concurrency annotation for a couple of methods
6f38295dc Switched to random prime walk when iterating ConcurrentHashMap
2fe46f821 Fix an AOOBE
e73bc5c15 Fix the build
4780fee06 Fix a compilation assertion
9139c4f55 Add "Compile lib" task config
b5300f50e Correct "Host One" settings
6b1b3c86c Introduce ConcurrentHashMap
0562ce0cb Update DBProcessor harness; add basic scheduling implementation
15961580a Update Gradle wrapper from 1906 version to 2021 version
a164bdd54 Change the concurrency control algorithm (remove "initial green frame" optimization)
3aca60339 Merge branch 'master' of https://bitbucket.org/xtclang/src
0ea67b3e6 Minor updates for DBProcessor support
e66420b4c Revert "Mark core annotations as @Concurrent"
5349a96fe Revert "Add @Concurrent to safe interfaces (wip)"
17e2804f4 Revert "Mark core classes and interfaces as @Concurrent"
ee37761bb Revert "Mark core classes and interfaces as @Concurrent"
7d3b199f0 Revert "Mark core classes and interfaces as @Concurrent"
a233463d1 Revert "Mark core classes and interfaces as @Concurrent"
3f3b5870d Mark core classes and interfaces as @Concurrent
656884082 Mark core classes and interfaces as @Concurrent
b0b517eb3 Fix a concurrency bug
a6ca56344 Mark core classes and interfaces as @Concurrent
78972a295 Mark core classes and interfaces as @Concurrent
88ae0dd3c Mark core annotations as @Concurrent
1ef0049c7 Fix jsondb storage concurrency
0b639f71f Add ability to override strict limits on internal transactions, to allow DBProcessor work to be managed inside of transaction by the Scheduler
a96cefea2 Add message processing and retry determination to Client
2e8a32e5d Mark default initializers as static
523b0bb4e Update scaffolding for DBProcessor support
fdb149ef1 Update doc from code review
a0357e126 Add @Concurrent to safe interfaces (wip)
78bec9a6f Add @Concurrent to IDEA-recognized keywords
7af904cf6 Improve CriticalSynchronization native support
c784819fc Fix txlog.json formatting
7bdcf9d70 Introduce scaffolding for DBProcessor support
79486192e Rename JSON identities for transaction log to differentiate between internal (version) and external (API visible transaction id)
4e1dd93b3 Fix an ArrayOutOfBoundsException
4114220d3 Fix property type computation for NameExpression with dynamic types
0e3f739a7 Minor doc corrections
9f3d6224b Update OODB contracts and documentation, from team call code review comments
11ce57be0 Improve name resolution for services
862b9f970 Remove duplicated lambda parameters
a6b92be26 Introduce CommitFailure exception
edde03ff3 Revert an incorrect change (at 10/28 12:54 PM)
acaedab50 Add tests for new DBObject API
f4ca19696 Merge branch 'master' of https://bitbucket.org/xtclang/src
5c57ec8ec Fix formal type parameters handling in lambdas
686f5554c Fix isA() for formai type parameters
4b97aa1d4 Update DBProcessor based on review feedback
33bd45aa8 Merge branch 'master' of https://bitbucket.org/xtclang/src
b59302c7d Add policy for skipping overlapping scheduled process
46828a2c9 Simplify + clarify DBProcessor API
a9cafb8b7 Simplify NameExpression validation logic
f09c2fa3e Improve useFormalType() implementation
2a9fdb818 Refactor collectGenericNames API
822df9f14 Fix a broken test
a1a29f313 Remove DBObject.peek() method
2ac813732 Merge branch 'master' of https://bitbucket.org/xtclang/src
9f97daaa8 Improve auto-narrowing resolution for TerminalTypeConstant
d0edebad8 Remove peek() from DBObject
9724d2973 Implement visible tx id generation
480d1b126 Remove imdb implementation
3d797bafe Fix a bug that cuases corruption of ParameterizedTypeConstants
5445910ba Update jsonDB DBObject.require() implementation to use readId tx instead of writeId tx (as per the spec)
53f59c174 Update OODB API (add auto tx id, connection/transaction property on DBObject, select() on DBLog, etc)  based on results from test applications
feaa0c909 minor updates from code review
6a935f71f Rename "Compile xdk" command
b9cb57473 Merge branch 'master' of https://bitbucket.org/xtclang/src
7e7a21067 improve documentation, and add key-based require/defer methods on DBMap
c7075abe6 Update the doc
fee9d74b6 Add native support for Deadlock exception
216c2e694 Implement the second part of the new concurrency model
14d468a0e Update Connection and Transaction APIs; provide commit failure indicator
39bbb15ab Fix the tx throughput computation
125ebd5dd Change addRequest() API to record additional fiber state
d0983b053 Fix an NPE
c11dacf6e Merge branch 'master' of https://bitbucket.org/xtclang/src
a00049020 Missing @Concurrent on Catalog service
1d3dd77f4 Add concurrency support and concurrency safety to @Lazy
46c3d17c6 Fix a typo in method name
b17fda894 Compute Service synchronicity proactively
7a73d8054 Fix AsyncSection API
9eafb98ef Fix the doc
59eaafb6d Recognize various const types as const, and virtual children of services as services
bef3e675e Fix the negative number formatting in the Bank test
4080194f3 Implement new concurrency model
15269642b Fix an NPE in debugger
4b7495e79 Fix a bug causing incorrect property type inference in Const validator
f6974847b Update OODB API for DBProcessor and DBPending
824d51236 Mark item for discussion
f8893480e Replace "TODO" with a real comment
17155d829 Replace AsyncTrigger functionality with the new DBObject "DBProcessor"
5776c3c20 Fix type inference handling by AssignmentStatement
5a65f882d Prepare Service API changes
b1ef8bfce Refactor Context.getVar() implementations to remove duplicate code
687f1b3dc add new Service.reentrant property and update doc
da13c2d1d prepare JSON DB to support upcoming Service.Reentrancy changes
a6afb49dd add new annotations to support upcoming Service.Reentrancy changes
db7a1d431 Change the default reentrancy to Exclusive (transition to the new concurrency model)
6fc78ed46 Add a map of "options" to DBObjectInfo and use it for an initial DBValue value
cc4d8d449 Fix type computation by CaseManager
25fd8e6da Fix the Exclusive re-entrancy mode handling
0f7ce873b Get rid of redundant ref initialization
3f698517b Optimize out no-op constructors
ead39c275 Reduce the frequency of "forced" fiber rescheduling
67b13048f Remove "startTime" and "duration" from CriticalSection API
2d6ecc740 Retain implicit [super] constructors in virtual children's TypeInfo
6a097328a Fix a couple of NPEs
37b901a1d Now with less semi-colon
c28cb261b Resolve concurrent issue in ObjectStore / TxManager interaction
46bbb46e2 Fix Skiplist impact on concurrent code (inadvertently was causing fiber switches)
06b8210ce Change PseudoRandom a class, not a service
a1e567ab6 Fix to accidentally making SkiplistMap immutable via iteration
6df41e056 Fix an NPE in the debugger
56e53d38e debugging Client & TxManager
7e6fd53bc add toString implementation for TxRecord
e723e7a39 resolve race condition in transaction enlistment
59fd4ab07 Correct the test tx count
754733917 fix race condition on json db start-up
d051fadc3 Fix a scope computation bug
db0cf3c36 Fix a couple of other exception handling issues by FutureVar
fe5d5e113 add toString to internal TxRecord for debugging
9db1622c3 Fix CircularArray bug
28e7650a9 Fix incorrect exception handling by FutureVar.whenComplete()
0aed30a5b Fix the code generation for Future return values; NPE in the debugger
eb689cac6 WTF?!?
f461a66ba Minor test fix
5c8f94f01 minor edits
64a352246 minor improvement to concurrency
94462f39e Change the transaction distribution for the stress test
149ec273a Unify the native stack trace look
248b99e79 Fix an NPE caused by a missing module
52998dbae Fix fiber scheduling
7bc30df4e Improve fiber view output in the debugger; add "outer" var
ebab5f167 minor fix to the fix
716effcf0 minor fix
65c335b72 fix tx log format
ac8ceed43 Fixes to concurrent and bulk TX processing
fa9c99485 Add a work-around for a known compiler issue
98192fc6f minor correction
dfb7ef44d Make Worker into an independent service to prevent a lock up (on Cam's behalf)
581d5325a Add "view services and fibers" mode to the debugger
47189327b Add container dependency info
eb278386f Add container dependency info
2492aeb0a add retry support to AsyncTrigger API
c6d747d2a Fix JsonMapStore.loadInitial()
c1732b34d rename unpackString() to unpackUtf8()
0e65b53d0 Pass the current ConstantPool to runtime auto-initializing methods
6c57918ac add source to method structures for debugging support
497121e66 add string dup() helper to Handy
587cb6c70 Add missing doc
946fda6a7 Improve debugger's "step out" processing; implement "stop the world" approach
a5c7eebd2 Allow void method to return a future Tuple
1ca6ca22d Create a stress test db app (works only with one branch now)
2a402c6ec Fix fiber association check
019524efd Add module directory and timestamp to ModuleStructure
0ad71d24b Add source file to ClassStructure
e1843c6af Fix JsonMapStore and DBCounterImpl
0ca2a11ef Avoid blocking explicitly async calls
218aff145 add multi comparison doc
aa52fa098 Move getSourceFileName() impl to ClassStructure
c4fe6a10e Temporarily allow stack trace across all containers
56ea141f9 Merge pull request #5 from keithc-ca/suffix
f11ffeaa0 Correct factor comments
91bf2033a Implement (partially) NtxLogStore
eda577a3e Add integer factor suffix support to Ecstasy int literals
f988dd2f5 Fix doc
ec8eee365 minor edits
288d9bcd0 Merge branch 'master' of https://bitbucket.org/xtclang/src
bf91c2ebf optimize for concurrent blind adjust on transactional DBCounter
12f6622dc Add source file names to frames, allows debugger "hyperlinks" when rum in intellij
807251e45 Change Decimal.toString() implementation
08038cf6b Refactor DBHost API
a1589ef5e minor fix
0f081a7b8 Add validation, rectification, and distribution to prepare pipeline
401e3bf44 Fix immutability problem with empty SkiplistMap
eb5ad7cb4 Fix the db code generation for schema methods
cf187f867 Fix a call chain resolution for method with default parameters
d1ba8b82b Relax comparison restriction check
8f7e1b428 Allow immutable Tuple to be used as "void"
d19e315b1 Fix minor bugs in TxManager
3b541b668 Replace AOOB java exception handling with an explicit check
feee5cb13 Fix TxManager log handling off-by-one bugs and shut-down
056288ca8 Fix property accessors call chain creation issues
2ce153bea Update single-commit implementation
c928a9406 Fix doc (minor)
e3a327646 Fix doc (minor)
492622653 Fix an AOOBE in calculateLineNumber()
a3436b2af Prevent a void async method from blocking
2f3191767 Fix the stack trace generation for "waiting" frames
618adbc5b Work around the property call chain issue
94acee2b8 Reorganize TxManager implementation (continued)
c6a8e0926 Improve error reporting by the parser
a1444762c Fix a bug in CaptureContext causing capturing unused vars
47316b55e Reorganize TxManager implementation (continued)
155715947 Fix handling of void async return
eb25639f7 Merge branch 'master' of https://bitbucket.org/xtclang/src
429b8650b Get rid of a duplicate method
bbce59bd5 Reorganize TxManager implementation
cc489cd40 Future related improvements and fixes
bf0934a78 Implement the JsonMapStore data "purge" during loadInitial()
69b6e80d5 Fix an issue of typedef resolution in LambdaExpression and NewExpression
754228aab Fix an IllegalArgumentException in Array.copyOfRange()
959e4f043 Fix code generation for lambdas with potential multiple returns
c6fef0a44 Fix FutureVar native code
c7504b5e7 Adding concurrency support to TxManager
024e33edc Fix an NPE in FutureVar native code
92a6c694c Improve a compilation error message
3f5f1faed Clean up tx log format
1516cf18e Add explicit JSON Schema for system structures
17ce7fb14 Implement DBCounter concurrency optimizations
785221cfd Ignore this
987b778b3 Merge branch 'master' of https://bitbucket.org/xtclang/src
2c7b4ebdb Remove incorrect TODO
e4e2ca820 Merge branch 'master' of https://bitbucket.org/xtclang/src
344537dcc Fix the build
094012aa5 Add tx log recovery support
6174d0ee8 Add tx log rotation support
2dd43857f JSON deserialization fixes
966f537fe Fix the context handling by ElseExpression
f287cbac9 Implement renameTo() API
ac199d112 Minor fixes to resource handling
1a2a8d273 Fix a compiler NPE
86fa68a28 Switch from Empty to Small model during "prepare" phase
bc57280ec Fix "on-exception" breakpoint handling by the debugger
9d9bc7180 Implement missing JsonMapStore functionality; the entire db example is working now!
70c0454e6 Store the "expand this" value globally; default to false
275340ecb Fix TxManager.isReadTx()
977f235ca Fix the resolution of formal type child constants
4b547614b Fix Schema.findMapping() on Cam's behalf along with RangeMapping work-around
c358b0153 JSON Parser hardening for EOF and Closed
39b2003bc Limit the length of displayed variables in the debugger view
5b95a7d71 Fix an unsupported exception; minor clean up
9c9a64012 Fix code generation for multi-clause "using" statement
61b933acc Minor fixes
1a84239b4 Added watch support; TODO expand/contract support for watches
a2d26c993 Minor fix to expanding vars in non-active frames in debugger
b8b6bdaa3 Minor fix to loading breakpoints
c7d651394 Possible fix for debugger issue with lazy variables
19af76152 Add expand/contract variable view and array support to debugger
8e8244a15 Add persistent preferences support to debugger
04ba36fe0 Add property view to the debugger
7ad144c93 Rearrange JsonMapStore impl to match JsonValueStore code; implement sealPrepare()
aaa5d67b1 Fix String.indexOf() and add String.lastIndexOf()
078b9ab94 Fix an assertion caused by "one off" bug
55c8750f6 Raise exception on auto-commit failure
97ca67f29 Add re-usable Mapping for SysInfo
681bfd365 Handle paths in names
ecb6111ce Implement json ArrayMapping
d8e96ab1c Update TxManager comments
a2861b2d0 Minor comment
3bca929ab Fix wildcard import handling
39123fa11 Fix JSON format bug in value storage
9afbab47a Fix a typo
2ce31af4e Fix OrderedMapSet constructor
67b54bfbc Add transaction history cleanup to JsonValueStore
793ea5d5a Add coherent support for OrderedSet
b0d4e1cfa Remove incorrect short-circuiting at LambdaExpression's validation
581a7ab93 FIx a reachability issue related to try-catch blocks
21c62cb6a Fix a type inference issue for relational types
8b085b52d Remove an obsolete TODO
2138aab19 Prevent type immutability or access modifiers to impact comparability
836406b2c Optimize out a rarely used constant initialization
094e95951 Merge branch 'master' of https://bitbucket.org/xtclang/src
426446d55 Add recovery support to DBValue
2521b87bb Fix some typos
d91c77135 Add life-cycle support to hosted dbs
f4a47e0db Add missing accessors
02c8bc983 Make non-transactional DBCounter working for jsonDB
544081ccc Move the "Initial" oodb annotation into the module's root
98f70787a Make DBCounter working for jsonDB
44a8a7968 Update JSON CounterStore APIs and implementations
2167113a4 Separate ValueStore API from implementation
68afc2cfe Add test compile and run instructions
f637e6e18 Make the partial test work
a6cdd35b7 Update value read/write logic
095e921b3 Add parsing helpers
c4173633a Merge branch 'master' of https://bitbucket.org/xtclang/src
82641777d Avoid generating the host module if up-to-date
d961e978b Add toReader() to String
cf6b85082 Include the file info during the module merge
ffd8b0053 Fix nested parsing of objects and arrays
46571cffd Fix the "moduleNames" property implementation
603fd2b08 Add "created" property to FileTemplate API
77bc7a789 Incomplete changes to JSON parsing to allow individual array element and individual key/value pairs
66988fdcb Make commit working for ValueStore (with temporary "load" code)
f6d69ffb0 Fix ternary expression handling of empty array types
e4dde9cb5 Incomplete changes to TxManager commit
8f3b4eb15 Incomplete changes to JSON parsing to allow individual array element and individual key/value pairs
9ac52ec44 Fix "StepOut" debugger command
f9dc7b1ef Improve the debugger API, protect it against natural exceptions
75b723fb3 Add a "toString() view" command to the debugger
940102309 Align imdb's DBObjectInto with json's implementation
2d9552de8 Add a "hostOne" command for IntelliJ
cc047006b Add host support for DBValue type
1144104a9 Enhance PropertyTemplate API; implement native TypeTemplate methods
6a3705157 Add commit to disk processing
4b0670a6f minor edits
324347cbf Minor re-design of commit ordering
2a3d974fc Preparing for JSON I/O work
fadf39f19 Implement some native TypeTemplate and PropertyTemplate methods
247cb3d89 Split out MapStore API from implementation, add chunked key iteration, implement tx prepare
0cb7cc69f Add initial support for DBValue type
1005b10d6 Remove no longer needed script
e7ebdf378 Archive manual code-gen example
55cf0e798 Unify code-gen for imdb and jsondb
6b0e217fc Small doc fix
b15460988 Small comment fix
0368b1f9c Merge branch 'master' of https://bitbucket.org/xtclang/src
695106a3b Fix a compiler assertion
cb562a044 Small comment fix
3499b3304 Fix getWriteId()
18443138a Fix an NPE in debugger
d9958fcab Improve StepOver and StepOut debugger commands
16b15107b Fix an OutOfBounds exception in debugger
15fe89dbb Add a simple variable rendering to the console debugger
70557e55b Temporarily enforce the "data" directory creation in the "build" directory
f92e5fd48 Add missing native Int methods
5f958eaab Fix containingDir getter
384de358c Small bug fix
c19860b3e Fix code generation for CmpChainExpression
f7f8ad0aa Add transaction merge support for Map
c6b2dd1dc Minor updates preparing for Map transaction support
29e8c1fa9 Update ObjectStore related code
dc8bdb2e3 Fix createStore() implementation
10f0a51a2 Fix createConstHandle() for MapConstant
531747918 Make a constant MapConstant type immutable
db208e207 Implement more of Map API for JSON DB
e6f8de05a Updates to MapStore
62aa7b34f Make a small change to the compile API
b89e02d5f Enhance the DBHost API
7ed6d7c8e Fix a bug in the definite assignment computation by multi-condition "if"
8fd165b09 Create a [negative] compiler test
640b3ed40 Compile auto-generated classes by the host
d426c3034 Add toString() implementation for some native handles
4c574c86d Continue to align auto-generated classes with the current prototype
5a2bd3ca7 Introduce ParameterTemplate API
f5e01f3a1 Fix an NPE
e53727173 Add data lifecycle support to jsonDB
1f6878945 Fix the native MultiMethodTemplate.children() implementation
1618b8b7d Continue to align auto-generated classes with the current prototype
7c5222bf6 Implement some missing native ClassTemplate methods
677787cb5 Implement some missing native ClassTemplate methods
1957bc938 Make debugger more robust; improve var rendering
bf0c1b71a Fix "equals" and "compare" support for native templates
b783f3690 Prevent the ConsoleLog to change the content of the passed-in array; follow some IDEA's refactoring suggestions
a5a484a1c Continue to align auto-generated classes with the current prototype
cd295dd64 Add side-by-side rendering support for debugger output TODO add "this" to vars TODO prune junk off end of frame list
4be303278 Add support for switching between console and frames/variables views
362eda74b Add help, breakpoint toggle, and console logging to debugger
1feb1080b Skip generating explicit "immutable" for const types
1198e48b6 Fix gradle build warnings
79b75e5a9 Add pull request template
24b2cd608 Merge branch 'master' of https://github.com/xtclang/xvm
9dce99f1e Update issue templates
e8a66f0af Align auto-generated classes with the current prototype
3d4afbe44 Fix a potential name collision issue
9ea7c5f72 Copy transactional context idea from jsondb impl
606739b2b Remove rejected (at least for now) TODOs
97f455de0 Make IntelliJ happy (trivial)
8bd6fd8bb Fix synthetic constructor generation
208dc705b Add service awareness to the debugger
c42a90775 Implement StepLine and BreakException debug commands
c004648d3 Fix StepOut and StepOver debug commands
30ef249c5 Introduce a command line debugger
010f87b29 Fix CriticalSection on Service for JSON DB
fd559bdfb Remove unnecessary debug output
b26cc8694 Stub out "criticalSection" property impl
33a62ebb1 Fix the "trailing array zeros" bug
2e105c797 Refactor regular expression support
a648db1ca Minor fixes and updates for JSON DB prototype
bdb796b7d Minor fixes to JSON DB prototype
345fea4ce Minor fixes to JSON DB prototype
4eabc04a7 Add "auto-generated" code to addressDB_json
aa49d011a Merge branch 'master' of https://bitbucket.org/xtclang/src
0ca71b981 Minor fix
8a7aecf1a Merge branch 'master' of https://bitbucket.org/xtclang/src
e7cd463ed Add Storage instantiation prototype
1416799fb Remove obsolete TODO
1a54153c0 Clean up some doc
5e948bf31 Fix a compilation inconsistency issue
458a8bc56 Remove duplicate gradle build tasks
442af7471 Prototyping concurrent prepare/commit processing
7a88deef6 Add transaction id encoding for stage indication
690707198 Remove an obsolete comment
4d88435e2 Remove a work around for containers of virtual child types
c8405574f Exclude virtual types from method resolution (resolveMethodConstant API); retain the "auto-narrowing" aspect of the virtual child type
5fcb1ad38 Add a missing compilation error; allow a single value return from multi-return expression
372254461 Add old transaction pruning to ValueStore
309488c86 Add OrderedSet to implicit imports
9fff67e82 Update JSON DB prototype based on review feedback
a386d4ab6 Fix constructor's look up logic at NewExpression
6c062cd7a Merge branch 'master' of https://bitbucket.org/xtclang/src
13d70c513 Minor edits
74d36facf Merge branch 'master' of https://bitbucket.org/xtclang/src
982948d6e Fix minor reference issues
6cd546306 Merge branch 'master' of https://bitbucket.org/xtclang/src
d04e836a5 Update JSON DB prototype
9ef54a1a7 Merge branch 'master' of https://bitbucket.org/xtclang/src
6af81dfdf Update JSON DB prototype
466d5b7e4 Simplify covariant/contravariant computation
d27c9d0b3 Improve isA() computation for VirtualChild types
843313046 Fix obvious doc cut and paste issues
e0160e116 Move unused collections to separate library
5ebcf82a3 Add support for tuple-to-multivalue conversions
f00b91c88 Add Boolean return to Map.computeIfAbsent to differentiate between existing and new entries
e080ecfe5 Avoid unnecessary generation of synthetic equality methods
6ea131bbb Rename and simplify usage of types' auto-narrowing API
8e7f1191d Fixing web MediaType ALL_TYPE to not have a file extension
15edaeaba Improve "auto-narrowing" computation for virtual children
e85b05879 Generate implicit type parameters for annotations
0bcd07334 Introduce simplify() API for relational types
b2b7f867e Improve findFunctionInfo() implementation for Union types
a289c75c5 Make getConstraintType() implementation more robust
ad4af1da6 Enhance getExplicitClassInto() API
ceacd5f4f Improve "supportsEqual", "supportCompare" and "getTypeDeapth" implementations
7b632b8ca Fixed comment formatting in Console.x
0d987cd5d Trivial correction
6fb4384cd Add an assertion for incorrect capping (trivial)
4c46893b6 Harden the capped method validation logic; fix isConstructor()
dfd57caea Add typedef resolution for type parameters
fb33f3932 Improve type inference for annotations
35c7f6700 Improve isA() calculation or difference types
55eb89b85 Fix an NPE during validation
ae6e26aa5 Avoid using auto-narrowing context for functions
f41994c42 Make correction to continuation lambdas (trivial)
9bf20686f Fix isA() for incompatible declaration types
67f59ddc7 Align the reference equality check implementation with documented behavior
295d9afd4 Resolve a deferred/default argument for MOV_VAR op (fixing the build)
fb5b26929 Simplify natural code using map() API
d34cbfda3 Avoid creating auto-narrowing types for non-virtual children
24bd038bf Simplify ArrayAccessExpression.findArrayAccessor() logic
8f424e8b8 Fix OutOfBounds exception
6f4e3b283 Implement native Array.clear()
4648b7a06 Remove unused code paths
4f31a96b3 Fix the method id emitted by ArrayAccess (fixing DB test bug exposed by tightening the contravariance check)
d9d803144 Adjust "auto-gen" db code to the changes in DBObject API
038741bca Remove unused imports (trivial)
7d81dfc7e Prevent findArrayAccessor() from returning capped methods
8906155c1 Fix doc (minor)
d3f5317d9 Rework trigger APIs; use Path instead of String
c1728e784 Fix the code gen for ArrayAccessExpression
ff9574080 Merge branch 'master' of https://bitbucket.org/xtclang/src
7fc8b8d4b Remove invalid widening allowance
8a355e722 Clarify Ref equality comment
861fafa77 Add Iterable interface to Path
ec3e38794 Re-work of Path
1566cbb1c Add missing getTypeDepth() implementation
365f84841 Make DBCounterImpl to extend DBValueImpl
e84dbb931 Clarify the TODO doc
e5a5fe56b Fix the type resolution for formal type based typedefs
f1494b171 Fix "virtual" typedefs resolution
47c686018 Remove no longer necessary compensation logic
7449f867a Simplify - trivial
c640bb8a0 Remove obsolete TODOs
0516feb5e Remove already fixed TODO comments
b5e07cced fix typo
28fe5adf4 Fix a regression for the "missing type parameters" compilation error
05af1a7d2 Improve formal type parameter resolution
a6df3adf1 Override the default implementation for Collection.addAll()
455d1bb36 Improve type calculation of super() method
5df3dc944 Prepare support (without trigger support)
87953bd0c Improve compiler error reporting
889e47ec0 Fix the switch case block context handling
78cac7d06 Create a DB connection for every injection
088df8939 Improve compiler error reporting
11b8e98bd Add native FutureVar implementations for "and", "or" and "transformOrHandle"
79870b9ef Fix an assertion in LambdaExpression error reporting
ab37878aa Fix FutureVar native implementations
e21be9e5c Fix FutureVar assignability issues
184458d57 Fix an assertion
a55de7822 Trivial
536c947ee Fix a compiler assertion
530579a08 Improve exception reporting for failed injections
cde668d8a Fix an NPE caused by incorrect assembly
32a26b675 Change field access (trivial)
5d2f5ce28 Make the imdb example working again
bf9459282 Cache TypeSystem handle by the Container
cd3852f80 Merge branch 'master' of https://bitbucket.org/xtclang/src
cddb53a5e Simplify number of addContinuation() lambdas
9b0999f57 Add missing isShared() implementation for ArrayHandle
fe210fd3c Minor updates to JSON DB transaction processing
a33ecd1c5 Fix Array regressions
44a359d15 Fix type inference for Tuple types
d45ea3e95 Minor updates to JSON DB transaction processing
82a9daa4a Add one more validation step for InvocationExpression and NewExpression
d01ebca67 Fix "conversion" fit handling by TernaryExpression
6a083ad07 Remove long broken tuple based invocation logic
9205fc46a Add prepare logic for ValueStore
2706bb98b Fix virtual child type resolution in lamdas
744125488 Fix generic type binding in lambdas
478af7aa3 Merge branch 'master' of https://bitbucket.org/xtclang/src
64c6a5616 Update json db prototype
7fa73ed8a Fix the doc
8b775c28d Clean up error handling by lambda expressions
954132573 Fix a method signature
741d305a2 Fix the type inference bug for l-values
91b65ea9a Improve ternary expression type calculation
23231722c Remove unnecessary cast
20259a77f Remove unnecessary cast
3a6164b0d Add ErrorListener argument to TypeExpression.ensureTypeConstant() method
0cfc6d5ca Update json db prototype
f63916d62 Revert comment changes
f3bed5bec Add "Expression" as a valid "using ()" argument
a49fe97e6 Fix the doc
25fb2226e Add two common items to implicit list
3e160a729 Comment corrections
31f15d6ff Improve a compiler error message
36a3144d7 Add type inference to SwitchExpression
ea3efd3c3 Fix formal type parameters binding in lambdas
b7555287d Capture formal type parameters in lambdas
1de107601 Simplify TypeConstant.isTypeParameter() contract
12e74bfff Make trivial corrections to RelationTypeConstant
c4dceedc3 Make corrections to Char API
cf1c4194d Fix an assertion
e5235b9c6 Turn on assertions for the main build
798699ec6 Refactor CaseManager's type inference API
38eb766d8 Make trivial refactoring
5e2d61a72 Fix the type inference bug in CaseManager
29fc187e9 Change the persistent format of DynamicFormalConstant
c59cad251 Allow virtual new construction for a formal type
f05a09e6f Improve ".as()" type inference
58df99d99 Improve IsExpression type inference (and fix the build)
28c82f670 Fix a typo
e765f4d3f Allow a DataType function call against a variable of Type<DataType> type
c9c6911d6 Fix Type.fromClass() method signature
a788b8be3 Add formal type constraint inference
6bc558a7a Remove unnecessary methods
decedff4e Fix the build
d69ac9157 Update OODB APIs
79676177f Fix SkiplistMp (on Cam's behalf)
8e672f718 Fix LongBasedDelegate.extractBits
6d9e4df8d Add library for collections
0b3ab9757 Fix BitBasedDelegate.getBits() implementation
384af209f Add OrderedSet interface
1c1c07884 Fix LongBasedDelegate.setValue()
cb17422a4 Remove unnecessary cast
eafecee2d Prevent overriding a non-private method with a lesser access
6c6f19180 Add native support for various numeric array types
59f3fca47 Minor collection edits
0f8be7218 Merge byte array based delegate handles
4fb2bd6cb Clean removed values
ad76059f9 Simplify xRTViewToBitFrom64
464d7e172 Add support for various numeric array types
0d435675b Fix formatting
93e615ba6 Remove no longer necessary native templates
a951df381 Simplify the "as" implementations; add ByteArray.asInt8Array()
3364bb639 Implement ByteArray.asInt64Array()
feac73f17 Implement IntArray.asBitArray(), BitArray.asByteArray(), etc. (partial)
cd1ccd62b Implement file truncate(); improve file append()
1d091212f Add File.append() method
e10883585 Fix Array.reify() implementation
cdafd924b Refactor native Array implementation to match the new natural model
4aa41a0e9 Fix an assertion
39b07dcdc Add Set implementation on top of SkiplistMap
7614a2f29 Fix an assertion
3e59eb6c7 Merge branch 'master' of https://bitbucket.org/xtclang/src
5e8d76e78 Add compressed ElementStore implementations to SkiplistMap
9913a09e6 Add a trivial build script
83e3f3a6b Merge branch 'master' of https://bitbucket.org/xtclang/src
1da2a631e FIx handling of nested properties
63ee17f10 Fix TypeInfo creation for PropertyClassTypeConstant (the test compiles, but doesn't work)
ed5e3a05d Minor improvements to test output
ab95b8e42 Simplify field access API
eca6d6a46 Fix a bug in TypeCollector.inferMulti()
a49ff1412 Fix an NPE
292e35c8b Update the doc
b11d166a2 Merge branch 'master' of https://bitbucket.org/xtclang/src
5a6f3ae88 Remove unnecessary resolveAutoNarrowing() implementations
c46896194 fix typo
e70792643 Enhance resolveAutoNarrowing() API
27a4b306f Fix formatting
a3c2a0605 Fix [sub-optimal] TypeInfo for colliding interface methods
90d55dcf9 Fix the build
d4d9d820f re-write Array to always use delegation model and add SIMD design
077d64003 Introduce SignatureConstant.removeAutoNarrowing() helper
b7532bd38 Introduce removeAutoNarrowing() helper method
8ba2d7085 Fix an IllegalStateException
aa2660629 Implement missing VirtualTypeConstant methods
b639cb410 Retain "auto-narrowing" information on VirtualTypeConstant's parent
fa25e6aa2 Fix and simplify ensureVirtualTypeConstant() method
8dd045948 Fix parsing of annotated types
17c506ae0 Fix an error message
25ba38151 Fix a ClassCastException
1c78b965c Fix isA() for a DifferenceType off a formal type
0591a319b Improve type inference logic; fix isA() for difference type
74ad9538c Improve compiler error reporting
a133038c2 Fix an infinite recursion in isContravariantParameter()
fa361736b Fix andNot() implementation for difference and annotated types
22e0576aa Fix the TypeInfo calculation for "direct" mixins (C incorporates M; M into C); ignore repetitive conditional incorporates
b699508cc Minor function name update
75b2ac71a Fix the dynamic type based funky calls
2a45014a2 Leftovers for dinner
a3b4f535d Add 0, unit, and conversion to the Numeric funky interface
1910b78ba Fix Bit to allow any Bit implementation for its operators
b1876880b Fix missing locator issue
eb4ff5898 Update copyright notice
1892cd6a7 Fix an assertion (partial)
156bfa85a Add funky interface for numbers
210e444c0 Prevent duplicate "implements" contribution
65723e74b Add Bit constant literal
2ccfa2463 Add missing Ops
45f2914b9 Allow @Op methods with default arguments
fa33c7b41 Fix a circular Nibble initialization issue
e1ca0b9fb Minor fixes
b7ea27585 Aligning Map metadata with Collection metadata
260a6b0dc Update doc for Nibble
113644a62 Improve common type calculation for CmpExpression
6bc89f2dd Remove obsolete TODOs
eb196801f Add native Number.toByteArray() implementation
0a4c15f23 Fixes for Nibble (with TODOs for GG)
4a596ddf6 Fix Nibble native handling (on Cam's behalf)
c9bac4fb3 Allow resetting lazy property on mutable objects
7d4432645 Adjust DBMap implementations with corresponding entries/values mixin
122b326a3 Fix PropertyComposition field access logic
5422795c1 Minor fixes
0dea29726 Removed invalid assertion
71af13d08 Add a check for a missing contribution parameterization
1e5e73ae5 Create a KeySetBasedMap mixin
cd9fc87ce Fix the function type resolution for FBind op; fix an assert
005b66f7f Allow an annotation to reduce var access for 'adopted' fields
ee6873af8 Revert the property info resolution fix (at 10:01 AM)
1c29b73ce Improve error reporting by PropertyInfo.layerOn()
f8a1cba55 Avoid reporting errors during compilation that are side effect of random testFit() calls
bfc5d24f2 Fix property info resolution
cc5f82383 Fix handling of annotated anonymous classes
c14ad25c8 Fix a number of assertions
93ac61982 Fix auto-narrowing resolution for formal targets
7ce3735ed Fix handling for "outer", "Outer" and "OuterType" pseudo properties
a01971799 Fix bugu caused by immutable data structure optimization
f81510e22 Minor
68df85762 Minor
14ce1ee15 Fourth part of ordering change in collections API
a550fb75f Document some deferred potential features
90dc76174 Fix the Average aggregator
637abf647 Prevent setting a mutable state to a lazy property on an immutable object
095f8e87e Third part of ordering change in collections API
d581a4a40 Second part of ordering change in collections API
270f69477 Fix concurrency issues w/ Assert and LazyVar
f28c717f6 First part of ordering change in collections API
5ac2dda06 Fix the build
5f94e0e36 Fix handling of Ref-annotated properties without custom code
d5cb5f71c Merge branch 'master' of https://bitbucket.org/xtclang/src
661d3ff41 Move common helpers to Type
a8b68135e Fix handling of Ref-annotated properties without custom code
144ffa421 Eliminate join() method on Collection; use appendTo() instead
9c4aeae45 Fix FutureVar.handle() implementation (one more time)
782d104da Add new Average, Min, Max, Range aggregators
19b23339d Fix FutureVar.handle() implementation
6d7fdd86c Fix the type parameter resolution for non-congruent types
d4795b44a Correct the doc
c4c5b10a8 Update documentation for Windows
e7dda4587 Plug the converter test
2b45e1df6 Add native FutureVar.handle() implementation
fefc953df Allow function call on a formal type
e055f59b1 Move the aggregation test to numbers.x
8348cb85e Add parallel summing aggregator
9bd4e96f9 Add generic type-driven numeric conversions
22baa0843 Introduce Class.defaultValue() API
5cb743deb Add optional message to assert statements
4e77862ad Align lib_imdb layout with lib_jsondb
d684faf5d Allow "[" to appear on new line for complex literal parsing
88eeb05e8 fix accidental submission
c2b5a3a6d Fix generic type resolution for modules that incorporate parameterized mixins
de09d5021 Fix a shared project setting
abb8fd9e5 Fix an NPE
0fa35dbf4 Fix the doc
e895d78dc Split out aggregation interfaces from Collection
ca483f0b1 Create "aggregate" module
3793f4653 Fix the Start/End position calculation by ast.Parameter
df85bc9d3 Fix the doc
14440ad79 Rename db to oodb in AddressBookDB
e345ccb4d Align lib_imdb layout with lib_jsondb (step 1)
d0512d284 Allow "Random rnd" resource name
3e0c0aaaf Allow "void" statement expressions
cf9ab72ec Allow "void" lambdas when the return type is not defined
04ca1df25 Enhance formal type resolution logic
004a70672 Improve "not newable" compiler error messages
305d12540 Improve handling of generic types in anonymous classes
8c5b2ac69 Remove obsolete TODO
bde55fe00 Add a draft of DBMap.size() implementation
1916d98c2 Implement MapExpression.testFit()
14f32949c Update the doc
92522c789 Fix the signature of entries.calc() method
49152120d Simplify recent fix
2cc4e928a Change the error UID type to String
19c1666b2 Improve Nullable type handling
68686b97c Fix Nullable lambda return compilation bug
b2f2dd374 Fix Nullable lambda return compilation bug
f178c628c Fix formatting
f2d60cfac Add default Stringable implementation to Map
459ef3281 Simplify ImmutableTypeConstant handling
bab027fd6 Improve invocation error messages; make minor refactoring
6d42b253d Replace string concatenations with $""
26d3fb0cc Simplify isA() test for conditional tuples
bca52f068 Fix handling of private properties in a method
a216c2528 Allow arbitrary placement of property declarations in methods (on Cam's behalf)
b0aa2bfd3 Improve collectGenericParameters() API
30507d99c Fix the child type for "isNewable" check
1eebaa42d Fix the build
b5e7d2fae Fix isNewable() implementation for virtual children
7fd6bf1a4 finish implementation of Duplicable constructor
0e8a9ee18 Reassign a TODO
eb27aac23 Merge branch 'master' of https://bitbucket.org/xtclang/src
1234f9eab Change ElseExpression from single- to multi-value implementation
e2f3b3381 minor spacing change
0175ca717 Fix lambda processing for a simple multi-value return and virtual new code generation
0ab90f679 Fix an assertion
36aa578ff Add separate "duplicate" and "copy" constructors to HashMap
d7a21fc47 Fix the build
617f68ca6 sync point broken
39b308a7e Fis the order of properties for Type.properties implementation
fa0f27487 Merge branch 'master' of https://bitbucket.org/xtclang/src
1f89d373f Fix the run-time access to methods on private properties
a79d8a7f1 Minor fixes for replicable/duplicable container types
6976702d5 Merge branch 'master' of https://bitbucket.org/xtclang/src
bb577dd3d Fix an assertion Methodinfo.layerOn()
ef3c8002e minor doc fixes
5ae8df6b3 minor doc fixes
71be5a9d3 add slice support for ordered maps
ef47cdd1f Get rid of no longer necessary conditional return limitation; fix the argument count check
06c276c2d Fix the build
02f5ea30e Fix ConditionalTuple return support for functions
e87b1d32a Fix a Tuple return support for functions
d5bb47aeb Introduce "ensureArrayType" and "ensureTupleType" helpers
b96e3a8cc Add parsing of conditional function types
e35a6bc52 Add a skiplist OrderedMap implementation
59883eeab Add equality support to OrderedMap
19c7d668c Add TODO
17f2ff4c5 Fix imports processing for a top-level TypeCompositionStatement
d4351ab23 Fix the TypeInfo for virtual childrent struct
bffee4df2 Fix generic type resolution for parameterized virtual children
288724d61 Add pseudo-ranndom RNG implementation to class lib
2f13989a9 Fix off by one bug
f1939dc7a fix for infinite recursion
e5cf34ea7 Update skip list test
b7a1bc12d Minor parsing fix for for statements
a0d8ad78c Fix the doc
8f0900bd3 Fix addressDB_imdb
2b9e3cafb Remove erroneous type inference logic in SwitchStatement and SwitchExpression
cae42bad2 Improve type inference for CmpExpression
efe8d48f4 Fix literal parsing conflict with switch cases
b8c213932 Tighten the type inference logic for non-parameterized virtual children
983d88ff4 test items for Gene
aa7d469b4 Improve switch statement common type calculation; fix the assertion
1aab79c34 Fix fields access handling for properties overriding a @RO interface declaration
b981974ea Merge branch 'master' of https://bitbucket.org/xtclang/src
f504fd6fb Fix the name resolution flow for annotated property types
f347ec3d5 Optimizations for map iterators, part 2
8d5fc32cd Optimizations for map iterators
7cc825d56 Make "Ref.isService" implementation native
57391865e Treat Injected properties as any other Var annotated ones
de7bd969e Fix the return type for a number of native methods
e0a775a2f Optimize EntrySet size
3defdf829 test items for Gene
f621ef3a9 Add basic logging support
b8859ef7e Add DBCounter for jsonDB example
2284a68cd Fix the circular initialization issue for SingletonConstant
8bf6fffb4 Update the "auto-generated" jsonDB code
da2935b68 Add OrderedMap to implicits
1ead1ab10 Change the name of the synthetic delegating property; fix delegation to static properties
d151df270 Change the name of the synthetic delegating property; fix delegation to static properties
2e14da751 JSON DB updates
208a02a18 Minor update
000e4f91a New API for ordered map structures.
6f7af0737 Replace the reflection based "invoke" with a direct CatalogMetadata call
073757e66 Extend proxy usage for "foreign" constants
72b8dd0b2 Change ObjectHandle.isPassThrough() API
4e33b75af Fix property handling by proxies
36ead660f Fix arithmetic ops for @Unchecked UInt64
fd0a41416 Mask all the custom injections at the host level
087a1b59a Fix interface proxy async request handling
3c60e6104 Ensure that only pass-trough objects could be set as service properties
2a8ea4feb Introduce ObjectHandle.getUnsafeType() method
8443344c8 Change service request APIs to allow a non-service async targets
246f75983 Move helper methods
b3f051e10 Use "unsafeType" for isA() based op-codes against a TypeHandle
6e3a8f011 Fix an NPE in ImportStatement's NameResolver
5b2b999dc Fix build dependencies
b41800e7a Avoid loosing hosted app's console output on exception
65674cde4 Adjust the "auto-generated" jsondb module
2eb98cf68 Add createConnection() method to CatalogMetadata
5803b7dae Change Ref.maskAs() API
ccbe3d992 Change the connection handling by DBHost
da9adf440 Added the doc for PropertyTemplate methods
3ca40ae72 Remove a "not naturally implementable" TODO
7d16292d0 Fix the "actual type" calculation for ListExpression
b794d0344 Improve the type inference loigc for TernaryExpression
69300a3d2 Fix virtual child construction chains
b7b44c45d Implement missing apply() scenarios
8c81a7c7a Adjust Connection.createTransaction() signature
5cdc04e65 Merge branch 'master' of https://bitbucket.org/xtclang/src
6ba898858 Fix the fiber selection handling for Exclusive reentrancy
f20fc4642 Update OODB APIs to add support for read-only TX and path navigation
4c02dc359 Fix the code broken by submission d3f718fab671ba69cc73e1a196886e80158168bf (3/3/21 4:45pm)
843d502a2 Fix the build (temporary solution)
54727dbe5 Remove unnecessary constraint
d3f718fab Fix an assertion in isA() logic caused by formal virtual parents
0be6bcf60 Fix the connection creation
7bb4c2548 Fix the TypeInfo calculation for virtual-child types
0f1a46c74 Fix isA() for virtual-child types
b45458433 misc cleanup
042d6f724 Fix MoveRef op-code
ca47efc07 Fix "does property need a field?" calculation
8f6d2554d Allow specify an actual db implementation from the command line
889c01bde Adjust the imdb prototype impl to the oodb API changes
456aa16af Merge branch 'master' of https://bitbucket.org/xtclang/src
aaffad68e Added injection of xvm properties
84e811fae misc cleanup
021d7d7e4 Fix isA() and toString() for intersection types containing annotated types
55eaaa245 Merge branch 'master' of https://bitbucket.org/xtclang/src
580e8e059 Fix processing for Parameter annotations
99a306ba1 Add transaction info to Transaction API
4ff87c1e4 Add ability to easily determine bounds (start and end) of JSON elements when parsing
b3ac298a3 Update comment
a59a6bf92 Fix the construction of Class handles annotated by mixins with non-trivial constructors
3c2f6d97a Make isIntoClassType() implementation more robust (per Cam's suggestion)
0c8cf6f54 Fix processing of "into Class" mixins
be6f95446 misc cleanup
580c175fa Fix construction of annotations with named constructor arguments
b5d91bfc6 Fix processing for mixins into an intersection of types that include Class (e.g. "into Class | Property | Method" )
2de02f5e4 Remove incorrect error reporting
e385706f9 Allow singleton method invocations
0cdcda2ab Fix runtime issues related to Method handles
ad62d3fbc Avoid redundant error reporting for annotations and invocations
f3eba470d Fix annotation processing for inner classes and properties
7b9b56c1e Fix a regression in "collections.x" test
2c75b0d99 Simplify RegEx and Matcher constructors; reformat the doc (hard wrap at 100)
8e9ab240a Refactor regular expressions
ccbd305ce Remove unnecessary import
028b057b1 Change internal property names to reserved names
2b3f3e132 Fix Annotation resolution logic
eead074ea Merge branch 'master' of https://bitbucket.org/xtclang/src
28bbfa1e2 Minor updates for code gen
c480e3f5c Add code generation for client side properties
146f9c260 Add "resolveFormalType" API to Type and TypeTemplate
49bcd6e5f Improve the imdb API
81850319b Allow String.replace() to take an empty replacement string
ca3300036 Change DB property declarations to the Lazy pattern
86fa726ba Change DB property declarations to the Lazy pattern
c0442a767 Fix type inference bugs
6d1b6c957 Remove obsolete TODOs
969505100 Fix a typo
4242745ab Fix call chain calculation for virtual child methods
618cfd149 Provide worker abstraction for offloading serialization work
ee9f9d705 Merge branch 'master' of https://bitbucket.org/xtclang/src
c61274449 Fix an NPE
e5dc64787 Remove obsolete TODO
8466a3422 Updating database module boot-strapping
72caa6272 Minor simplification
1600d03c8 Add review comment
ab629163b Fix Frame.getLocalType() implementation
a65d6305e Fix type resolution logic
7c3214af8 Bootstrap system schema (wip)
1f03f3c08 Allow trailing comma on enum list
8cd2e64bb Merge branch 'master' of https://bitbucket.org/xtclang/src
a3d4fcbe4 Fix lambda validation logic
db5dcbc46 Add error log and log entries to oodb API
be5ee94e7 Merge branch 'master' of https://bitbucket.org/xtclang/src
c38c0a533 Fix ClassStructure.calculateAssignability to use a normalized type instead of canonical
8fcf86fc7 Add lifecycle support
849227899 Allow trailing "," in type/param/arg lists (continued)
9aa34ee52 Allow Class to Type comparison
72a68d504 Allow Class to Type comparison
7d1377ebf Add a DBCounter to the AddressBook app
2dfe46b99 Implement imdb.DBCounter
4955daa8f Simplify Pattern API
ab749601f Fix String constructor
0fa4eac11 Merge branch 'master' of https://bitbucket.org/xtclang/src
caefa2f7b Fix an NPE
afec2501f Updates (in progress) on jsonDB project
b8b982b15 Add "delegates" keyword to IDEA's list
fc00b6c45 Remove old "TODO"
1f5c3afba Add NoTx mixin to specify optional extra-transactional behavior for counters and logs
7269e4739 Auto-rollback any uncommitted transaction on connection close
2e2298193 Minor doc fix
637b4710f Fix the compilation issue with binding and calling functions defined at an "outer" level
50ed9dc5b Implement Array.clear() natively
9498fb525 Fix usage of "super()" call for private property accessors
6f89fc22d Refactor some natural code of the Web module by JK
53a11df60 Fix UriMatchTemplate to correctly match a request URI with no path
ac4b810af Add web framework module
ad82489e4 Refactor auto-generated schema logic to reduce the amount of object-specific code
0a106bc8d Allow virtual child of service to be used as a target for an async call
f1dc19f94 Allow type narrowing for read/only property getters
726284ed3 Add natural Stringable implementation to ClassTemplate; fix ClassTemplate.displayName implementation
31d9cb8c6 Use the simple module name to locate a test '.xtc' file
8581bef0a Improve resolveAutoNarrowing() implementation for VirtualChild targets
0fe63c5ca Improve ClassTemplate.displayName implementation
0612d4138 Update the doc
e765d05ea Change the TypeTemplate API and fix ClassTemplate.toString()
71692b4f4 Adjust DB code gen for OODB API changes
d3e354dc3 Adjust imdb_lib code to the OODB API changes
8624a9d64 Update OODB APIs
ee7be9d20 Enhance ComponentTemplate API
e633cb76f Narrow the type of dbParent property for DBSchema
fff1e9a0d Fix toString on Type for A | B | C when one is Nullable
4571978b4 Make trivial formatting change
a8cbf0a67 Allow native rebase methods to be overridden by default methods on interfaces
1343d2725 Simplify method layering algorithm
d851cb0ac Optimize out duplicate side-by-side interface method bodies
37cae6cef Prevent an infinite recursion for a const that implements toString() by calling super()
b090f69b4 Improve Invoke_ opcodes' debug output
b31ea9bf0 Fix a native super() redirect bug
45b7d1b61 Remove no longer necessary default Const.toSting() implementation
fda631f45 Improve parsing exception message content
f62d6f6d0 Fix native toString() implementation
82f0d8e74 Correct code generation and improve runtime handling for property refs
3a13449ed Make Tuple to extend Stringable
6af2d0da8 Improve Property.x API
6177c29cd Update based on code review feedback
0f33da11b Remove Stringer mixin
28555dc05 Fix previous submission
6cffd8e30 Add an accessor for the underlying TypedefConstant to RecursiveTypeConstant
7fa2f0671 Implement toString() for FieldInfo class
a2f011993 Update the FileChannel to use Read/Write buffers
406fcdd0b Prevent an infinite loop in "calculateRelation"; fix "getValueType" API
c1e0187ab Implement a number of native method for templates
18073cbab Add "getResolvedModule" default method to ModuleRepository
c1eb956aa Redesign buffers for upcoming file and socket I/O work
6696380fe Add assertion
e752af484 Update doc
6aba7cda8 Fix deserialization constructor of Var_M op
17f5486c3 Simplify implicit fields handling; fix some review notes by Mark
24862fe42 Use an array rather then a HashMap for field storage.
1c5e4efbc Create the imdb module
bba004bd6 Prepare for DB code generation (cont.)
0936f9ac8 Prepare for DB code generation (part 3)
a33130e9e Simplify native OSFileNode implementation
377af9b8a Allow classes to add fields/setters for properties with delegating getters
b4c79f552 Improve ElseExpression to ignore a non-completable "right side" by type evaluating logic
edae67a58 Fix "wrap" method
5c8e88070 Add virtual FileStore implementation
f61e7eef4 Fix an compiler assertion
f8a4e5efe Merge branch 'master' of https://bitbucket.org/xtclang/src
3f809f4b5 Add relativization support to Path for absolute paths
94c8e664b Fix the new FileNode API
28193ac27 Relax property type compatibility check for read-only contributions
c553df269 Add FileStore and Parent as properties to FileNode
6723f1251 Add direct UTF8 round-tripping support between Char/String and Byte[]
d228311ba Add native File and FileChannel methods
39ffabe9c Fix a definite assignment bug
e1c4ab25d Fix run-time support for Tuple return values
83c3739d2 Move TestRunner into a separate "host" module
2007f7f60 Fix an NPE in Parser
31ecd5f4e Provide a simple test that used to fail to compile
0430a0c26 Fix a "turtle type" related compilation issue
568c00032 Fix a couple of assertions
726602b70 Fix the missing timeout bug
c1b483875 Prepare for DB code generation (part2)
222ca4f55 Prepare for DB code generation
3e6afb79a Show java version for the "runOne" task
8f27b0ad3 Add a gradle task to run a single test
76999cd94 Merge branch 'master' of https://bitbucket.org/xtclang/src
b5a520dab Allow fields for native R/W properties
7981b20fd Doc fix
2e4dbe5fd Mark Ref.annotations property as @RO
a70593945 Improve String.replace() method
142a1bb94 Add replace() method to String
ef013f68f Prepare for DB-related code generation
926b45c39 Add compilation-time check for self-referencing contributions
d3696d852 Add convenience methods to the Directory API
93d5e2da5 Override native "toString" impl for FileTemplate
0620db92a Extract imdb module from addressDB example
6bd2ef451 Improve native compilation support
62a9f608e Add a natural compilation support (first draft)
e9b9ede0a Add "store" method to the ModuleRepository API
b6af5a877 Add compiler check for ambiguous "wild" imports
b46a0c785 Use capture information to initialize assignment info
1dbfe498a Declare Object to extend Comparable
7eef6ae66 Enhance the ResourceProvider API to respect the "opts" from InjectedRef
80e0cdf5c Remove unnecessary type params
7de0ccc66 Fix the DB example
20165cd49 Simplify the generic type accessibility check
f84980540 Disallow usage of parents' generic types by static children
135c58cdf Add support for method Parameter annotations
d060c5ecb Fix property delegation code generation
ad41ec0e8 Ensure constructor calls for conditional incorporations
f192e3d35 Improve an error message
2f52bad0f Create an archive of one-of tests
65b539fe6 Fix handling of Future properties on services
df4b5a271 Implement new sync/async behavior
e729e4e45 Prevent double-reporting of "immediate" async exceptions
fb51b8eb2 Simplify IfStatement validation, fix a definite assignment issue
ded35d01d Rollback an incorrect submission
b266d1f0a Replace an implicit conversion with an explicit property access
4fa47e775 Prevent an infinite recursion for dynamic type resolution
ff8e6dc36 Improve VarInfo API and dynamic type support
6c1b04fa0 Remove obsolete TODO
2e99b0d57 Fix handling of annotated properties with reduced accessibility
642a23a37 Fix handling of uninitialized annotated field
e43c7561f Simplify natural code
d98e91b09 Improve compilation error reporting
4cfc590f5 Add one more fix related to the previous submission
cd7c827c5 Improve context-specific type inference logic
e8275fc27 minor edits
d6834e687 Add explicit async style invocation
13c21e79d Update DB APIs
1860e420b Remove obsolete TODOs
f927aee7f Change the test output format
0f972bba9 Improve ArrayAccessExpression validation logic
687ced6c7 Improve ArrayAccessExpression validation logic
1270eccfe Make NamedTypeExpression validation logic more robust
2b99e77b3 Add UIntNumber to IntNumberMapping
4a028d896 Minor fixes for Map
2eed20301 Fix handling of named annotation parameters
dd7edb074 Change the persistent format for RegisterConstant (clean rebuild is REQUIRED)
7e532e575 Refactor named argument related logic
d73de7447 Inject a db container with the real console
ddc001fba Fix an IllegalStateException
0b21c1389 Fix AddressBook db-hosting example
b287aa205 Make FiberQueue.ensureCapacity() algorithm more straightforward
eb5538e4b Fix an IllegalStateException caused by a TypeInfo error
3a020c730 Add a couple of toString() implementations to simplify debugging
5ba96d0dc Reset the fiber timeout value after a Timeout exception is thrown
3a4ad0e6f Update the "imdb" example code
b55d9d478 Simplify ServiceContext scheduling lock release logic
d13199fb5 Avoid non thread safe FiberQueue.isReady call after releasing the service lock.
fd625a07c Avoid busy waiting on futures
8378ac52a Delete a no longer used script
afe2b242a Pass the exception argument to "close" method super implementations
0da62b0bd MethodBody for an interface function should never be marked as a "Default" impl
ac38ecb9d Avoid generating funky Const implementations if already inherited
829ecffd4 Keep CanonicalizedTypeCompositions in the canonical ClassComposition registry
fe8c21965 Fix db app hosting example
22954482f Rollback incorrect part of change (10/13/20: Improve compilation and run-time logic for type comparison)
4558f8b1f Fix TypeInfo generation for imported modules
4c9ddaf96 Minor updates to oodb lib
adeeca6cd Add helper methods to String for matching
e33be6e05 Add RT support for "this:class"
2f6d5cfff Remove obsolete TODOs
a8704da25 Fix an NPE
259ce079c Remove obsolete TODOs
c38f1e773 Add support for calling properties of Method types
20587a3b5 Use exception passed to close() to determine commit vs rollback
cdf567b51 Add optional exception to close()
9f3a922f0 Simplify CoreContainer.invoke0()
e7ae0b0a6 Add missing method calls
f62bca7b2 Optimize native support for xClass; rollback some unnecessary xRTType changes
60d58c275 Introduce CanonicalizedTypeComposition
5f6c9699c Avoid a proactive TypeInfo calculation by PropertyComposition
6d35fd345 Update state transition logic for file based db
a2cd49d5b Fix random access in JSON ObjectInputStream
52a31ab06 Optimize out an unnecessary call to "revealOrigin"
ab5519413 Prevent native handles for Function and Type to "reveal" the origin
0da65a4b7 Use ObjectHandle.getType() instead of composition
cc420e2fd Add some constant caching and trivial optimization
ceb036e8e Remove unnecessary method
78bd1abe2 Cache ParameterizedTypeConstant hashCode
ff78d14b0 Simplify TypeConstant.equals()
d26e58a73 Refine the Enumeration API
55d954816 Change the Enumeration API
0155f5426 Fix a bug causing an argument type to remain too narrow after an initial inference
c49b7751c Narrow the register type returned by NotNullExpression.generateArgument()
263f4e967 Allow inner const to have outer service
a319ad6d8 Fix doc
f3466e156 Defer cache calculation for TypeInfo until needed
e136fc95d Invalidate a TypeInfo when a method is marked as native
8cd55595d Preserve "hasCustomCode" attribute for "asInto" transformations
08d8d60ec Make a couple of small improvements
4210b48cf Merge branch 'master' of https://bitbucket.org/xtclang/src
980a1f2b2 Simplify resolution of turtle types
83a6d8857 Minor doc fix
f058595c3 Add UTF8Writer
4e9239a75 Make correction to the last change in DifferenceTypeConstant
b673bbd3b Remove fixed "TODO"
85cd868e7 Make NullableMapping to work
a485b1324 Add "simplifyOrClone" implementaiton for DifferenceTypeConstant
eb1d440fc Fix a compiler assertion and optimize Assert code production
afc7b5be9 Minor fix
56ed27b59 Fix the compilation for complex assert statements (on behalf of Cam)
0e14b54b6 Fix chicken and egg problem
7033beaa6 Add ObjectHandle.isPassThrough() API
b5ae5fdd5 Fix the compilation assertion
14bb8957f Add Chicken & Egg reflection serializer handling
fb4b5dfdf add reflection test
499fdb2d4 Add stack overflow protection and op count stats
3c2a1e2bc Fix an assertion at RTProperty.makeHandle()
c30131e12 Fix an assertion at RTProperty.makeHandle() (temporary)
91520ba02 Partial implementation of FP handling changes
e82c3d341 Optimize out calls to no-op constructors
9f3fe5af2 Simplify code generation by AsExpression
06f124b09 Make a simple ReflectionMapping test work
80c701dc3 Prevent AsExpression to place a "source" for Move op on stack
8189979a3 Normalize types for VAR_* opcodes
3230191c4 Make type inference algorithm recursive
3d4feb77a Introduce integer conversion and slicing interface
4109645d0 Fix an assert
51c9c314a Update integer conversions
1d582902f Make catchUpChildren() to stop processing upon a serious error
ab26d0583 Make some changes related to ReflectionMapping test
8d7e1e040 Remove obsolete TODOs
7fdbd0ec2 Add dynamic formal type support (part 2)
9374f6907 Add dynamic formal type support (part 1)
370ad5d7a Fix Javadoc and formatting
e57194384 Make SimpleTypeResolver use the specified pool
a3776c74a Remove unnecessary exception thread dumps
3906a1730 Remove unused constructor parameter
5531b330a Update natural IntLiteral constructor, and related necessary work on variable length integer types
320c34045 Fix the build
c36eef74d Fix formal child type handling
ffb1c848d Ensure the container's type system initialization executes in the container's context
6620b5912 Fix a circular constant initialization issue
87b2c5187 Avoid naming a delegating property after an unresolved type
19e7a41dd Avoid marking "magnitude" propeprty as native for unsigned IntNumbers
381371ae2 Fix a CCE
cfb93cdd8 Add support for expressions in "delegates" clause
084d3a88a Fix handling of annotated properties with reduced accessibility (second attempt)
fbb52b6fe Revert the compiler check for annotated property accessibility
7da93c0ba Add a compiler check for reduced access on annotated properties
b331b5b92 Fix processing of annotation mixin constructors
616df7758 Fix annotated type access resolution
df42acf7a Fix annotated type resolution
d5b51f29b more TODOs
149a8f3c0 Prevent double-adding of implicit "implements Object" for virtual children
0cd2a4ef1 Fix annotated class construction
c1090777b Fix the build
7fe7a90b6 Merge branch 'master' of https://bitbucket.org/xtclang/src
452977655 Partially fix enum class issue
08b25db1c Adding TODOs
dbec2ca39 Adding TODOs
f9cedb09e Merge branch 'master' of https://bitbucket.org/xtclang/src
b3c7f5101 Add mixin annotations to TypeInfo data
4ec4fd662 Minor fixes to JSON Mapping lookups
71d4e18b6 Mark PropertyHandle and MethodHandle as immutable
459212553 Update JSON serialization APIs
708d62da0 Do trivial refactoring
bdf62f498 Add runtime support for annotated properties
7129e691b Remove unnecessary template caching
52e81b9a8 Move "annotations" property from Method to MethodTemplate
cb522fe81 Add runtime support for annotated methods
b592fbdd3 Add type inference for Method type
267c7d5de FIx annotation related compiler error handling
1505c875a Implement container-local heap
f857eb98e Fix a couple of bugs discovered by Mark
4e07abdce Fix "this.X" compilation logic
6be4325d9 Correct previous submission
2921cab98 Improve capture calculation for lambdas
cf628b546 Clean up some tests
a6115f32f Inverse the order of parameter retrieval by FBind op
c7a7f6c68 Prevent generation of redundant constructors
270e7b997 Avoid generating redundant SyncInit ops and calling wrapper constructors twice
162a1c620 Fix a compiler assertion; improve an error message
c980e887c Unify Frame's type resolution logic
a2b0ed4df Add a missing module check to the Linker and hosting test
fb9f70a04 Fix an assertion for toString() on foreign type
c3ceee317 Ensure mixin constructors are called for annotated properties
b815edd07 Fix whitespace
a3962529d Fix white space issue
f614271d2 Fix another context-specific type matching issue
4f87e646c Fix context-specific type matching logic
9c366bb46 Add mappings for Enums and a few other core types
dff3f2c54 Rename VarInt to IntN, etc.
85415fa3d Add more module version support
7b5b96050 Fix NumberMapping code
8ba5943c3 Update basic Mapping implementations
27be14b41 Update basic Mapping implementations
69014dae5 Further Improve context-specific type matching logic
8ce0a9216 Improve compilation and run-time logic for type comparison
fb7f97947 Remove no longer reproducible TODO
d5864753e Remove a "no action" TODO (a default setter would not allow a property to become field-based)
c0443eb13 Fix getFormalType() implementation for anonymous classes
fe0ab447d Improve context-specific TypeInfo production and type comparison logic
1ec7e9e31 Clean up an example
1a56498bb Remove unnecessary test output
baec652d5 Fix picoseconds rendering
3f72c938b Merge branch 'master' of https://bitbucket.org/xtclang/src
193bb55fd Fix an assertion caused by caching a comparison result of an unresolved signature
3df2b61a3 Add JSON mappings for temporal objects.
87c22fcea Add db introspection to TestRunner
e39231b9b Move "proxied" field check to the native code
fe8b3f52a Trivially refactor - move the inner class code
a75e59a04 Introduce "foreign" type handle support
36204082b Fix the code gen for L_Get and New_C ops
4a80e7f57 Make type comparison more robust
271e93f53 Make type comparison more robust
1caecdd5c Fix isShared() implementation
e0d4a7574 Fix Outer/Inner type handling
28448c871 Fix TypeTemplate.isA() implementation
490856873 Change FileTemplate API
bd552c7b1 Add JSON mapping support for Range types
f4c12624d Expand JSON Mapping support
535227bed Improve ISO-8601 support and non ISO-8601 parsing
d7b7ae953 Introduce TypeConstant.isShared() API
fcd4dd28c Change ModuleTemplate API
b4cb4bd7d Improve error reporting for "for-each" statement
5a0502997 Add native reflection implementations
3f1277c2c Make the build check for the "_native" code changes
b6652aed1 Fix class cast issue
ee45415e0 Replace standard "template" property of Composition interface with calculated "baseTemplate" property
4b146082b Make the db example work in a "host" environment
21abb9428 Remove obsolete TODOs
ab8cb86cb Add compiler check to prevent static property initializer from accessing "this"
9798d7a7a Add support for IDEA 2020.2
f1575e74e Update the db example prototype
64c602784 Update the db example prototype
294bdfe56 Use lower case for module names
d6deb93ca Fix asymmetry in chooseBest() method
fb2c35de5 Update the db example prototype
a8ea636af Fix another type determination issue for non-classmate virtual child
a6fff8189 Fix an NPE and a couple of assertions
3b57324b3 Updates to OS file system support; encountered NPE
ed8f17f06 Fix typos
e45667fb5 Fix type calculation for fully qualified virtual children
6303043a1 Prototype JSON DB functionality
45d96b47d Add file/dir copy/move functionality
37b09c4be Fix a compiler assertion
dd49945df Fix virtual child handling for services
acc3e221d Split off Transaction and DBTransaction APIs
ac61073cf Fix a ClassCastException
2a928c7c2 Update the db example prototype
7eacbea08 Minor doc fix
5a0bd4492 Adjust createTransaction() API
95ef4bcf1 Allow service virtual child to cross the service boundary
3e40dc414 Fix return register type calculation
951da2ba2 Make the first example work
b7bb7fdb8 Further fix property delegation handling
456832d18 Fix property delegation handling
12f4a62fc Merge branch 'master' of https://bitbucket.org/xtclang/src
39013a9f0 Add Set constant support
3359e59a0 Minor but important fix
b786b4bb6 Adding constant Set support (incomplete)
6f7622818 Create JSON DB project (encountered a build issue)
c0e6f7b48 Add "Set:[]" literal values (partial impl)
b842b3f97 Update the db test (compiling, but not running yet)
21ff86bbf Fix an compiler assertion caused by a parameterized typedef
1ec763678 Rename RootSchema.db property
8ae2bf64f Fix property handling for virtual children of a service
cb58bc3c0 Update OODB APIs to support root and system schemas
fa2108240 Improve compile-time multi-module dependency handling
0fde3d8a6 Make service child classes to execute in a context of the parent's service
cfab610f5 Fix a potential infinite recursion
e27b426cd Fix typos
432fd77de Fix multi-module dependency handling
a6da807c0 Fix the compilation of OODB module
cd67d6ffc Trigger support
a30c0a9f1 Add a draft of a DB example
7b815458f Make Launcher to ignore non-existing library locations
a74ead53a Database API doc and improvements (with compiler bug)
db5ef74a8 Fix invocation compilation for functions on packages/modules
d262d5443 Allow intra-test dependencies
e91b5b38d Add error handling for missing modules
ea42fc882 Introduce OODB APIs
66b74cd84 Change the Function.isFunction() method signature
8bdf720e1 Add a failing test for the parser
ab618d95c Improve error message
c6ef81cc0 Fix a ClassCastException
74cbab502 Make a trivial change
f3f6a13e0 Add native "isFunction" and "isMethod" implementations
bf1ab3ab4 Fix formal type sequence handing in Method and Function
cfe74f0c2 Fix an assertion in the parser
665443755 Add an example for the previous submission
00cf89f57 Add native "annotations" property impl for Method and Property classes
82fcd68d0 Add shorthand notation support for Int constants
189b68cf2 Remove unused argument for findCallable() API
169338355 Add a compilation example for the previous submission
9dbee7f7a Generate a correct Label type for Map-based "for loop"
747553ede Add sorting and filtering to Map; highlight issue with Label.entry
d1a14627e Align Type and RTType natural methods
f2cd6632d Fix the type resolution for array constants
318d66c9d Add doc to ContextToken
e5663f19e Added TODO
4a78aab43 Added Appender to Queue
20513d86c Fix Type.methods implementation
d9fe204f3 Add a compiler check for accessing shorthand-declared properties from other property initializers
450725847 Further improve type inference for Property types; make Property a producer of Target type
d6e403498 Simplify a "week" assignability check for "naked" types
20d0f7be6 Improve type inference for annotations and Property types
fb5b59b04 Get rid of no longer necessary "exception of the rules" check
36d1b3d12 Fix run-time handling of nested properties
2776faea1 Fix the type inference approach for "short-circuiting" expressions
f2edd5ca2 Improve "andNot" logic for formal types in lambdas
3b713bcdf Connect fingerprints for newly loaded modules to the actual modules prior to the merge process
7bbbb4b31 Improve the "findContribution" implementation for Union types
0ca77d44c Update the xDoc
278741eca Fix CmpChainExpression validation logic
dbff4d1b8 Add a reproducing scenario for deferred TypeInfo generation error
6067254a2 Fix an NPE
f3f871297 Fix the type inference issue with chained NotNullExpression's
fa3d29644 Add chained comparison support to Ecstasy
2892ae8cb Update "todo" list
a1c1de76c Fix a bug in LinkedList.add()
48ede6ddf Add a trivial test that was supposed to be included into the last submission
7a69836ec Disallow duck typing for types with virtual constructors; disallow protected/private virtual constructors
2960addf8 Add NewV_N op
4ba7f3f50 Implement the virtual construction support (phase 2)
fa94c40b8 Merge branch 'master' of https://bitbucket.org/xtclang/src
14a91b45b Implement the virtual construction support (phase 1)
e91950922 Add specific Int/Dec/Float type literals for all supported numeric types
7a021bbd7 Improvements to shuffled()
111c093f1 Introduce Iterator.take()
4482c771a Renumber ops
3fd6b7e7c Fix the Const.clone() signature
76203bfe9 Introduce virtual constructors and break the build
a2c2e3f0c Relax nullable checks for formal types
cca480f97 Add Cloneable to implicit.x
5e4bb3ee2 Introduce Cloneable API
d1b80a03c Minor Map API updates
c0bc28c89 Fix the annotation argument generation logic
3d1ea1b94 Add type inference for Property type
8bccaf510 Fix InjectedRef constructor
f3d99b5e1 Implement Ref.isProperty(); fix Ref.annotations property implementation; add TestCollection to manual tests
b557190b3 Improve the type resolution for annotated types
98614e0c0 Trivially refactor some code
8227bdded Improve generic type resolution for virtual child contributions
a12d45ae7 Remove a redundant @Op
b46cfd89f Minor doc fixes
8fcf531c5 Make Type to "produce" OuterType for natural isA() behavior
b36c81d80 Improve compiler error message output for common types
7ffacc9e6 Break the build and break the tests (not on purpose, though)
e516c71ee Fix an issue with nesting of capped methods
e8ffdb02f Add parsing support for nested mixin type
79a44901c Update test (still fails to compile)
448558f50 Replace an assert with a validation error
ff159f0fc Create LinkedList annotation
63d423d32 Implement Ref.annotations natively
03e63c63e Remove obsolete TODOs
5dd8bf00c Add Collection to implicit types
9548588f6 Improve type inference for nullable types
94f4df7b3 Fix the type inference issue for Lambda parameters
63f20e402 Fix Version.slice() code
44bb44669 Temporarily restore not-quite-correct MapFreezer algorithm
bcb44e387 Remove obsolete TODOs
571ffec68 Updates to Collection APIs
c15e7d487 Merge branch 'master' of https://bitbucket.org/xtclang/src
af2aa8f2a Improve type inference for intersection-constrained types
300242883 Merge branch 'master' of https://bitbucket.org/xtclang/src
00fc0e1eb Fix doc
0149b7985 Add support for a conditional lambda return
19c3ab9f3 Fix a typo
622d9539e Improve name resolution logic
ee895fad4 Add a missing "else"
41835d06b Add annotations to Ref and Property reflection
4ce7f285e Merge branch 'master' of https://bitbucket.org/xtclang/src
f0c06a509 Fix an NPE and and two asserts
9d347af1b Update Map interface
baee019ea Finish Version implementation
072f1e21d Fix an NPE during validation
983ec7c12 Fix an inference issue
7255802ca Validate the return type of post-construction "freeze" for Const fields
ac8454e49 Capitalize enums consistently
40c73d543 Fix a compilation error
41df0bbd6 Merge branch 'master' of https://bitbucket.org/xtclang/src
878b168eb Fix an assertion
2621bca82 Simplify element and slice support for Path
ba33a8e53 Add default Sliceable support to List
a92ee11db Add Sequential skip() capability
7937e60b1 Fix getVarInfo() to resolve method parameter type
3145d6bb1 Fix Path API
a4c0254ec Fix some "freeze"-related issues
60beda934 Align the native xArray.Mutability enum with the natural Array.Mutability enum
e44ee6a7a Allow more than one default impl in a chain
c582550f3 Remove an obsolete TODO
9e88252af Continue to eliminate TODOs on List
b63393370 Rename Entry.remove() to Entry.delete(); minor fixes.
05e7739d2 Add binary search to List
6a41ef9f8 Update API docs
d96a756d9 Fix the native Tuple impl
81f3f7c61 Work around a javac bug
569afbfd1 Update API docs
d3659ec1a Improve name resolution based on intersection type inference
da1b4d7e9 Fix an assertion
a7e09b49a Fix natural code
b0b13796e Fix natural code (all compiles now)
9c7e99178 Make PendingTypeConstant more fault tolerant
2ae2d1da4 Fix natural code
c1b5fb95e Merge branch 'master' of https://bitbucket.org/xtclang/src
bffae6476 Minor fixes
e982091c6 Fix natural code
3409bcd01 Fix natural code (partial)
eb861d333 Fix natural code (partial)
6f30585f8 Minor fixes
117812d2a Update Map API
11c41455e Merge branch 'master' of https://bitbucket.org/xtclang/src
b2c9c2ffc Changle left-hand-side [] from List back to Array
958dc5bd0 Minor fixes
0dbb9c00d Fix natural code (partial)
2039a2e38 Minor fixes
25174cd92 Fix natural code
9e0adb4df Fix natural code
9275e5418 Minor fixes
5e9534799 Minor fixes
6d828d29f Fix a compilation assertion; more natural code
6c726bff1 Fix natural List code (partial)
3551e6726 Treat "[]" on the "left hand side" as a List type
b8d67cc8f Fix an assertion
de0cc6a1f Merge remote-tracking branch 'origin/master'
340175b98 Misc fixes
068c9dfc0 Remove @Op annotation from add() method
2c1745b90 Attempt to break everything with a single check-in
4c54da7d1 Fix native methods for changed Tuple API (partial)
625f56d83 Change Tuple API to drop VariablyMutable API
30b783e80 Fix the collectPotentialSuperMethods() algorithm for methods with default args
5a2bb65a6 Fix the "redundant" errors filtering algorithm
d28d48dd0 Make trivial API refactoring
45b58631e Fix a compilation issue with typedef-based NamedType resolution
416f87d5d Remove unnecessary assert
703c5cf69 Fix of the incorrect change - "Fix the field allocation algorithm" made on 7/27 3:51 PM
18cad5c2e Fix OpIndex op
8d101d4b1 Fix support for creating a Ref to a read-only property
6b10e9c79 Add a compiler warning for a not nullable conditional assignment
233450532 Add missing native implementations for IntLiteral methods
5cbf045f4 Fix a regression in TryStatement
9008c2b31 Allow unassigned Future properties; redesign the service test
5af6d1b9b Fix an assertion
5875b045a Fix the field allocation algorithm
85467b699 Allow asserts during the Ecstasy core compilation
e6c1f220b Fix native Container APIs implementations
bab113d46 Fix a bug with cached comparison result
8ce1558ed FIx the test
ed59df8f2 Change add() to addAll() in Appender for multi-value add
19f853f0f Fix an assertion
ba2e439a0 Add a compiler check for "outer" class reference
254706512 Fix  service exception handling for synchronous calls
9e7c9deac Implement property delegation
7bf0844fa Replace native exceptions with natural ones
a39cdc058 Fix the module "dump" printout
0766959ab Remove an accidentally inserted line
1bcfcb192 Fix a cross-service StackTrace output
99faa148c Merge branch 'master' of https://bitbucket.org/xtclang/src
76aea0f23 Make ServiceContext aware of outstanding Timer and Clock alarms
83d10a7fe Fix a ClassCastException
dc16e26f2 Add line continuation to multi-line literals in Ecstasy version of Lexer
608aeb81a Add line continuation to multi-line literals
9520c8ba2 Adjust native Service methods with the API changes
21a51f1f3 Introduce advanced Container management interfaces
1f64a6ad0 Bug fix for empty Tuple constant (it is always a constant)
185a0e239 Add debugging message for when a hard-coded type name is incorrect
1a26b5ab9 Change the service test action ordering
2a9eda68a Create tasks for "hosting" tests
6493e6625 Disable "auto-import" for gradle tasks in IDEA
a5ec8196f Change ModuleRepository API
6d2c685c1 Fix a bug in duck-typing check logic
f9cdda99c Simplify "validate" implementation
7d3cbf721 Fix the linkModules() implementation
e58ea6d50 Remove unnecessary JVM args
7ce58376f Add "auto-import" to gradle settings
fd35f83d0 Add "compileAll" task for tests
710b03bc1 Add conditional annotations
e02b57f98 Minor edits
55bf22f58 Make TestRunner work again for simple modules
f92e7383d Split Json module from the core
b29281392 Fix an NPE in ensureInitialized()
65a9fb638 Add info to IllegalStateException for debugging
ed7b6f287 Fix the ConstantPool concurrency issue
5316c7891 Further improve JmpVal and JumpVal_N ops
7855f4ce7 Improve concurrency fix at JmpVal op
4c517764c Add missing property for native enums
38da02319 Fix a concurrency issue at JmpVal_N op
2457a2d34 Fix a concurrency issue at JmpVal op (NPE)
a30c2a65c Fix a concurrency issue with injected properties
7f384f85d Fix the fiber priority calculation algorithm
ab1c9b8c8 Refactor a helper method
93d98be2f Fis an NPE in shutdown(); exempt native frames from association rules
630ed5c84 Implement Service.shutdown() and registerTimeout() methods
7f98f532b Correct the Timeout constructor
a3a6cf6f3 Remove unnecessary property
391e4429e Introduce a specialized return value indicator for "forbidden" reentrancy
fdbaeb115 Adjust the approach for native properties in OSFileNode.x
f1dfe1dfa Disallow service reentrancy during the constant initialization cycle
a30ae5cbe Allow fields for @Lazy native properties
70f60c621 Correct previos fix (fiber termination bug on 7/1)
dd9966e87 Fix natural code
6b44ac14b Push back on a "fire and forget" caller if the callee's service queue is overwhelmed
ca6ab030b Improve toString() for NewG ops
0199635dd Fix a fiber termination bug
a1cbe1159 Improve the infinite loop detection for the compilation logic
724dbe079 Add native property setter for Service.reentrancy
a99ef8567 Fix a regression caused by making Object an interface
1f7d80465 Make Enumeration.byName native
7f5a5953e Optimize xConst.postValidate() for trivial fields
38a3197f1 Update the IDEA config
6ec4199ff Add "runAll" task for tests
346b0f717 Fix wrapper
2fe1712f8 Add the IDEA "Run" configs to the git repository
4dc9bcaa4 Change the "out" directory for TestConnector
4275ab81b Restore the web/json package layout
dfa01ad0f Simplify the command line for the TestConnector
4c39752d0 Merge branch 'master' of https://bitbucket.org/xtclang/src
d25b24302 Fix the TestConnector to work with the new layout
480be6da9 Add IDEA debugging support for command line tools
289a9403d Allow creation of output directories if necessary
8875114a0 Remove obsolete scripts
a9c7675b8 Fix the runtime initialization
5f22c2473 Fix the javatools dependency
b383464d5 Add "migrationVersion" to gradle.xml (auto added)
c9d700c16 Update IDEA project files
9034dc5ec Avoid compiling of .x sources if not necessary
0c67977a6 Fix build
a8ce092f0 Fix build
8d9001693 Updates to build scripts and readmes
16d53952c Complete the xdk build (generic)
d6dc80fbd Add the "compileEcstasy" task for xdk project (cont.)
e5093d9dd Update project README
bb32bb837 Update READMEs after review
a949a1b67 rebuild mac launcher
a15bfab47 build Windows native tool launcher
394d5e32b Update native launcher project
204a09bd0 Create the "compileEcstasy" task for xdk project (draft)
2e67fd091 Update directory structure for Gradle
8522863ec Simplify javatools build script
e4d150ca6 Add "utils" to javatools
836b8b03f Begin XDK layout project
28aec268f Simplify "implicit.x" handling
cac0672c9 Update compiler for :ecstasy project to use new Gradle layout
59f9aa17f Add implicit.x copy
e8a532cd3 More banging head against Gradle walls
b207e47e4 Initial refactoring for Gradle
1259f3975 Improve Sequence and Path API
9326c5c31 Fix NotNullExpression code generation
3895a098d Remove an obsolete TODO
1ed2ef705 Fix the type narrowing over-assumption for try-catch blocks
03bf8e672 Move more types into reflect package
f97bb390c Create temporal package
a863f4517 Fix a scoping issue for IfStatement with multiple AssignmentStatement conditions
a28bbbf43 Merge branch 'master' of https://bitbucket.org/xtclang/src
7a3b15ad6 Fix a ConcurrentHashMap deadlock in ConstantPool.register()
0bf78a7d5 Add type caching to TypeSystem lookup by string
e4694ff87 Restore an assert
e957d0655 Fix the parser
400ad2c8d Merge branch 'master' of https://bitbucket.org/xtclang/src
a086b2e61 Make isA() implementation thread safe
54a5a56d5 Clean up assert compilation when asserts are used as expressions
3f5944d77 Remove an explained TODO (Index is a formal type)
3140db77f Improve an element type inference for ListExpression
aaa96d84e Allow static imports; fix static property function support
30387adbe Simplify type and class for name processing
4f5db7547 Merge branch 'master' of https://bitbucket.org/xtclang/src
37fe7ba7f Optimize PropertyComposition.ensureAccess()
ffc88a4b0 Add wildcard import support
f4b2f0c9c Fix insertion bug in ListMap and buckets size calculation
a870812d2 Fix the ListMap
f9733f4a2 Change Lambda parsing precedence to allow ternaries in simple lambda bodies
fa21b6667 Add type resolution to various TypeExpressions
05fafb73e Fix Type.toString() for Nullable types and relational types
32170c2f0 Add type inference logic for short-circuiting statements
89b8dd454 Fix a typo
02bd464ad Check for the index presence before rebuilding
d743241ba Add implicit imports support, and NamedTypeExpression evaluation against TypeSystem
24266e688 Fix for index on immutable ListMap
6ef9f5613 Split out AST nodes into a separate package
785dfff07 Add class-for-name and type-for-name support to TypeSystem
2f121eea2 Add support for module-qualified names for serialization purposes
e8d53893d Add Ecstasy parser
0f23960df Fix native "stepTo" implementation
1098ba1e6 Merge branch 'master' of https://bitbucket.org/xtclang/src
444f5244e Minor updates to Lexer
6708a114e Add context type inference to NameExpression validation
29d256d0a Further improve the error reporting for unresolved names
12f3f0175 Add quoted() to String
7cfc0a131 Fix bounds error
95fd0219f Add an implicit property initialization check in compiler/run-time
7cb48dfd7 Fix the finalizer chain execution bug
d8fa14786 Merge branch 'master' of https://bitbucket.org/xtclang/src
390706e83 Fix bounds error in ListMapIndex
b5cc60a3a Minor fixes to Lexer
f75b819db Update Parser errors
349856895 Update BNF to allow child types to be annotated
3bf8f5b9a Fix an NPE during validation
22fb3c25d Merge branch 'master' of https://bitbucket.org/xtclang/src
1256e0783 Make Context.resolveRegularName() to choose appropriate access level
f25451341 Fixes and test for Lexer
e57129b72 Imporve "unresolvable name" error reporting
fcb661cea Improve an error message
b51c3185e Fix the processing for Return_ ops
b42670a0d Minor bug fix
304b32f7b Minor bug fix
42a6b7644 Minor bug fix
3d37fc57c Merge remote-tracking branch 'origin/master'
4ec63851f Fix Cam's bug in ListMapIndex
bf5e8d532 Complete initial Lexer implementation
2be2ddcce Fix the previous submission
382c440dc Fix type inference for "CondLeft" assignment
9ba5f11bc Improve op selection algorithm, respecting the "right" expression type if available
96ef5547b Implement numeric literal support in Lexer
7eab5df27 Implement string literal support in Lexer
0827ad820 Implement comment support in Lexer
7de09fb07 Add String trim() method
b418f0ad6 Add Char operators
bbf9c71c9 Add basic symbol lexing to Lexer
8de69d2cd Minor fixes
f9d309536 Add replay support to Lexer
ccac60e08 Add unicode escape support to Lexer
f9e7d20df Minor doc fix
75450f1e1 Add various UTF file loading support
abffa6782 Fix an assertion
886e96f12 Fix the test
5acb6ded7 Replace an assert with a compilation error
4e9856608 Add lexer implementation
4d467315f Minor doc fixes
de06068aa Fix previous busted commit
6f566f4ba Create "error list" capability
9a70c3327 Minor doc fix
370c0d2a6 Minor updates to Char property and method names
edf5e42a5 Fix Char toString issue
5b757303e Make removeAccess() and removeImmutable() more tolerant
8de9afcd1 Add support for random numbers
6270d32ad Add Unicode tables to support Char.x APIs
24f9ccdf0 Fix PackedInt reading
d10d0167e Allow construction of negative values
a5981cee2 Port ConstOrdinalList to Ecstasy
3d564ff22 Minor fixes
2f7d2b5d0 Merge branch 'master' of https://bitbucket.org/xtclang/src
c72663adf Fix an assertion caused by failed parsing
c8f4224fd Minor "stable sort"-like change to always prefer first value
52db287bb Add ability to directly calculate shortest packed format for an integer
58f4c8d22 Update javadoc (trivial)
dbc4178e6 Fix TypeInfo creation for annotated formal types
c9549beed Fix unchecked-to-checked conversions
6a501fb93 Add readPackedInt() to ByteArray (note: bug)
420b2eaa5 Allow finishValidation() logic to use context while calculating types assignability
73b6a2c05 Align finishValidations() (plural) implementation with finishValidation() (singular)
6e2978e25 Improve "construct ()" compilation; add error checking
ff1d212a4 Improve resolveAutoNarrowing implementation
91bb18533 Corrected previous submission
cc5c3e240 Add simple test for previous submission
5d52ad71d Infer generic type for "construct" expressions from arguments' types
1a76d8283 Add new compressed ordinal format
49aa40bc0 Add ability to efficiently determine size of packed integer in bytes
b7d1efaed Change the visibility of the cached field to "private"
165499513 Merge branch 'master' of https://bitbucket.org/xtclang/src
1ff48fd79 Improve locator usage by ConstantPool
cefcf75ba Minor doc fixes
21d2264b4 Cache some expensive to calculate answers
a44295ed6 Add a trivial infinite loop detection
a9a5f10f6 Add Javadoc
9e3133465 Simplify and fix buildStructInfo() algorithm
044cd7b19 Fix call chain calculation for native properties
8ac7877ba Fix reachability issue for "always true" while/for loops
5b4cad7da Fix natural code
99f8374be Fix natural code
eb3854456 Simplify the "normal variable" check in CondOpExpression
75b48e2fb Add range support for enum values in switches and "full coverage" calculation
5a5f7063e Add compressed BitSet support
04116da37 Minor fix
9243c178e Add a dedicated EnumValueConstant
35a796dc0 Add range support for enum values in switches
9fea10928 Rename "ensureInterval" methods to "ensureRange"
b3f559cb8 Add type inference logic for switch of Type condition
68eaf3756 Fix the "reflect" test
e0525ec4c Add "exchange" method to AtomicVar API
738dba421 Add Unicode data files (with appropriate license details)
29be126b7 Merge branch 'master' of https://bitbucket.org/xtclang/src
372a8a4cb Fix FizzBuzz
955b678d1 Create "text" package
79673a627 Merge branch 'master' of https://bitbucket.org/xtclang/src
da3e9892e Simplify processing of deferred handles
bff73c0f7 Move Version.x to "reflect" package
89bdf410b Add whitespace detection to Char
292a912fd Fix construction of constant map with deferred values
bb0218042 Add support for annotated type-to-class conversion
4acce4f41 Add native annotation support (Type.annotate())
e52394993 Change the order of access evaluation for "isA"
86dbfc13f Add toString support to natural Class implementation
c203d9bb1 Add optimization for toArray in ListMap
4cef8742f Add annotations to class toString
29e106026 Add native annotation support (Type.annotated())
90ddcde59 Add annotation reflection support
bfe13efc9 Fix value-to-tuple return conversion
49d0fc4c0 Use class display name; prepare for class annotations (wip)
d69adeac6 Add support for I_SET op against Maps
c5b17b058 Add Var_M, Var_MN ops
2040bae71 Fix the problem with the previous submission
ab5b468e2 Improve code generation for list and tuple declarations
2ad6cfe44 Fix processing of deferred arguments by Var_S and Var_SN ops
5b922607b Fix Class toString when displaying module names
32cf3feff Fix processing of deferred function handles by Call_ ops
0c4de81c4 minor doc fix
4f8cda400 Improve toString support in reflection library
355baad9e Fix handling for Type's OuterType
123223d79 Limit the number of scenarios for inferring unspecified formal type parameters
ecaf56ba8 Fix the code generation for decorated type expression (test)
b98c2c762 Fix the code generation for decorated type expressions
5943fd42c Fix the code generation for Class of module or package
73288c36b Add FizzBuzz example
58c03a6c0 Adding virtual child type test
4ecc56524 minor fixes
6831b9ac0 Add natural Type.toString support
75650bbda Fix the formatting
795de3a9e Fix Type.named() native implementation
e11b70a92 Ensure that the underlying TypeConstant for TypeHandle is always normalized
23125a97a Allow "sequence of" argument to behave as an argument with a implicit default value
988f5d7fc Remove obsolte TODOs
24963e166 Make ImmutableTypeConstant.resolveTypedefs() implementation more robust
8c8be8ded Fix code generation for "typeOfClass" plan; fix RTType.invokeNamed() impl for modules
ce9ddea32 Remove obsolte TODOs
4d5ed6d87 Add type operators and parameterize() functionality and tests.
44487cb1c minor fixes
eec9776aa minor fixes
21daf0f49 Fix native Module.typeForName() and Class.name implementations
07b96a294 Add toString support to Set
a74f95370 Clean up xModule and xPackage native implementations (cont.)
16f241301 Fix TypeInfo generation for import packages; fix some native implementations
6db7f47a7 Restore xModule and xPackage templates (WIP)
f4db986d2 Prevent Object's native methods to lay over other "default" implementations
b1693d891 Add tests
0b911142b Add annotation support to classForName()
191ca5517 Add Class for name functionality
b18a63645 Remove unused import
a27d45e72 Merge branch 'master' of https://bitbucket.org/xtclang/src
deaa2353f Simplify deferred handle processing pattern
ee45fb271 Merge branch 'master' of https://bitbucket.org/xtclang/src
f858e853f add toString implementation to TypeSystem
57f21e326 Simplify AppControl implementation
1a71441d2 add native typeSystem property implementation to Service
ed159c222 Fix the incorrect pool usage when calculating a class-for-type
b31f65cdf Fix the TypeConstant creation for Class types
0546ae270 Add Class for name functionality (wip)
de990c8d4 Replace set of pending futures with a counter
30081216d Encapsulate heap access API within Container implementations
cc4cfdabd Create "pending request" registry at the service level; implement additional native Service properties
ff9036522 Replace "new ObjectHandle[0]" with OBJECTS_NONE
e8ce82942 Remove unnecessary import
12ecfc2a4 Fix native Linker.resolveAndLink() implementation
9a709e269 Ensure that linker enforces "maskAs" for injected resources
1d7a3589c Doc
4f306383f Make a trivial correction to the previous fix
cf2246cc3 Merge branch 'master' of https://bitbucket.org/xtclang/src
8ca95a26a Add "service-local" caching facility for ops
608f5d3f8 Add API to produce a runtime type from a type template
27aaa0bda Improve Enum hash distribution
d5bc04522 Add TODOs for obvious optimizations
5bcaadf94 Remove outdated comment
7bf26c3bc Add some docs
fd8607c89 Fix ConstantPool "cross-contamination" and concurrency issues
7a624ce9a Add an assertion
8874aa3f7 Stop the stack trace reporting at the container boundary
37ef4e379 Implement an injected ConsoleBuffer as a "backed by a service" constant
f796a0e30 Add support for dynamic "void" return and atomic delegating chains
4fcae9fd9 Allow assigning multi- or no-value return to a Tuple
08e589ddc Revert an incorrect part of a previous fix for atomic delegation
13def1d0c Simplify Container interface
75922b3ce Fix Var_T* ops to create an immutable Tuple and support local properties
f33058b4e Fix fiber association logic; allow proxy to call native methods
acd2ad791 Make Object an interface
2fc396221 Add Java version check
e0db5f286 Document XDK construction
aef796dec Add note about Java 11 requirement
69dbbcadf Add note about Java 11 requirement
2a775aa38 Add base layout for XDK directories
35e654388 Convert the Disassembler tool to use the Launcher framework (to support the xam command)
412ea5180 Fix missing error info
827ae6132 Fix missing error info and added explicit module name determination
6893d83df Signed the launcher (temporarily, using personal cert)
f30c857cb Change a test
7ff7b7a46 Load and run tests by TestRunner (not thread safe)
df609231e Add "ArgV" support for the Runner (on behalf of Cam)
1f0f9def0 Change the xc.sh to use CommandLine.java
564d9d0de Merge branch 'master' of https://bitbucket.org/xtclang/src
ab7cdbbfb Declare _native.LocalClock as a service
ee44328e0 Update command line xec tool for xdk
7cd95ec4d Allow TupleExpression to infer expressions' types from relational types assignable to Tuple
a86ee7d2f Fix the shell script
364aa552b Update Windows native toolchain
17bdb43b1 Create shell configuration command for Windows
1dd4655ae Add initial Gradle implementation (WIP)
741d3d768 Update native launcher; add auto-config shell script for macos
4c5110564 Add new command line harness for compiler (TODO: xec, xam)
9c93716da Extend AppControl API
39784e469 Fix the scheduler
53adf72e5 Add constant for name of prototype _native module
7dec17764 Add doc
9fce3c07f Add pretty human-readable string to Severity
d17d762ee add default implementation to peripheral member of ErrorListener
4577646d5 Updates to IDEA config file
54e017f7d Fix MapConstant.hashCode() calculation
c8d7a0606 Avoid double-resolving of generic types for nested methods (JK's example)
75deacea4 Correct a submission error
44ca49896 Prevent silent Container crashes
ffc02126c Simplify "future wait" frame handling
85ab6264a Add support for loading core Ecstasy and _native libraries in xdk
1f94afa20 Merge branch 'master' of https://bitbucket.org/xtclang/src
8b9986853 add links to articles
d37ce98c6 Merge branch 'master' of https://bitbucket.org/xtclang/src
872c61715 Fix the FiberQueue resizing calculation
8766b9933 Fix a typo
335db4abe update launcher to move _native.xtc to prototype directory
3ba7681b6 add Java router for native launchers
690de3426 Merge branch 'master' of https://bitbucket.org/xtclang/src
73e8d6cfc Fix FutureVar.get() implementation; simplify Frame.getArgument() API
e8339032e fixed file name
72c65217e build native Windows tool launcher
a37cdf1c9 Merge branch 'master' of https://bitbucket.org/xtclang/src
120252266 add Linux and Windows launchers (untested)
d828d271e Fix stack handling by the native injectors
36211aaab Add property ref support to InterfaceProxy
c2949c749 Ensure FutureVar doesn't block on a Ref.get() call
42ba31c7e Relax an assertion at Frame.assignValue()
11cacbc52 Fix formatting
61f68f271 Update README.md
ca8099e48 Create README.md
b3f01b41f Create README.md
474d2e8e5 add "echo" jar for testing native command line launchers
3ed600c79 create native tool launcher for prototype
237258af6 prepare for Gradle support
aca68b99b Fix Call_00 and Call_T0 ops
3c04609b5 Make Return_0 to return an empty tuple for reflection based calls
18baabd57 Fix collectInjection() for named injections
94fad68a6 Enforce injections to be not "revealable"
cbe9537b9 Allow Runner tool to call an arbitrary method; simplified ResourceProvider API
e19eae58b FIx natural code
dc2fbc9a8 Create a couple of simple command line tools
55a581dd1 Fix NPE in toString()
ed54f93fd Introduce Container API
f94a00bc1 Remove unnecessary native method implementation
daf12100c Fix OSFileNode native code
94dbd39f2 Avoid an NPE for getType() against the DEFAULT handle
2dabe10ea Avoid resetting the NakedRef constant
5fdea059f Change OpVar.getName() calculation
2e4b9d4a8 Change the native module name
f049a2e4d remove "xqiz.it" from module names
2c216a03e fix re-use of label name
d083a21bf Change the InvokeRequest API to allow an arbitrary target
67e813ce6 Clarify singleton selection bias
5550a6daa Add name resolution support for singleton/class/type based on requested type.
949a6c64e Add decorated class constant to support annotated and/or parameterized class constants
65551336b Allow "switch:-ing on formal types
5b8b6c727 Add support for switch on Class type.
bdbd7f27a Add support for switch on Type type.
b084bb50a Fix a number of PropertyComposition related issues
98155a9cf Refactor OpVar.getName() API
5742eca45 Add RTClass for native class implementation
81e5b8a23 Allow TODO statement to be followed by other statements w/out a compilation error
89a4c3eed Make trivial refactoring
51e43abcd Make a small change in native Array implementation
8b641b952 Remove unused test
7c39f5aee Fix TupleExpression validation for trivial scenarios
643a6f6a8 Merge remote-tracking branch 'origin/master'
7a908ccd3 change /% operator to be divrem instead of divmod
5de2780e4 Fix a formal type resolution logic for "instance" lambdas
c122df0a4 Merge branch 'master' of https://bitbucket.org/xtclang/src
b2862bbce Simplify an Op implementation
6de4385e8 Add op strings to Boolean
8c13f6077 Prevent a CME in IntersectionTypeConstant.mergeMethods()
5a46bd4f6 Get rid of static caches of handles
7259a71b1 Further correction of the cloneBody() logic
fc06c84ea Add another missing "cloneBody" logic
f74e372f0 Add missing Parameter clone for MethodSructure
5f71cbb78 Minor updates to BNF and parser to match specs
dcbf86b91 Refactor ClassTemplate API
c7ea13737 Fix a def assignment issue for conditional assignments
cd49aa441 Add missing initDeclared() calls
8c923f972 Move class composition creation to "initDeclared" type
ebe6657bf Fix a typo
d26a3801d Fix the TypeInfo concurrency issue
03658852d Add name resolution to TypeSystem API
478983355 Add Class resolution by name to Module API
ad90b8fa7 Fix typo
19944f75b Update doc
23ca5c22f Fix tuple validation and equality check
7e50fbc43 Add notes for the formal type's child type resolution plan
1a659a129 Improve support for formal type's child type resolution
f66f277c0 Fix NameResolver's resolution for components representing formal types
1d24438cf Add a natural "equals" implementation to Tuple.x
6d60830a2 Add native support for various Tuple operations
d9a590f25 Add Int64->Float64 and back conversions
ee2de2b51 Fix pointer bug in JSON output
9170ff577 Add Sliceable API, and support inclusive vs. exclusive Range
53368b599 Simplify code production for function refs
8ffeb3317 Fix the property initializer compilation logic
0d00e2a20 Fix an NPE in NameExpression
1ded457fa Add TypeSystem support
ddee1203d Fix a typo
e7a0e3472 Fix TypeInfo for intersection type "into" (take 3)
ed6138d8d Partial fix for ArrayAccessExpression
43f855053 Prevent unnecessary TypeInfo re-computation
39af56307 Merge branch 'master' of https://bitbucket.org/xtclang/src
6aba6628a Defer type name resolution for mixins
f81a7cacf Add convenience methods to Sequence
7af01666b Add a type parameter check to NameTypeExpression validation logic
a1de45ade Add PeekAhead mixin to ObjectInputStream
843e50e21 Simplify and fix TypeInfo production for annotated types
469d3c3f2 Improve the ensureTypeInfo() algorithm
25be5143c Add an error check for named arguments
995846435 Add some doc
78e2877fb Remove orphaned capped methods from intersection type info
0f286f1f1 Avoid logging errors during partial TypeInfo calculation
f834a5ef4 Fix the computation of incomplete TypeInfo for relational types
462fa2a0c Make hasSuper() implementation to account for annotation mixin methods
52f5d5bb1 Fix a bug preventing ability to extend annotated classes
9daae6c45 Fix an issue with unresolved annotation types
7c0b55fb7 Merge branch 'master' of https://bitbucket.org/xtclang/src
9363494f4 Add support for annotated classes
1edaaaff2 Correct documentation
3fbbc235c Merge branch 'master' of https://bitbucket.org/xtclang/src
f6023d253 Remove hard-coded implicit types and rely on "implicit.x" contents instead
20b8a70ab Merge branch 'master' of https://bitbucket.org/xtclang/src
57d741cf8 Remove core module import aliases "Ecstasy" and "X" (use only "ecstasy" from here forward)
af807a2b6 Change recursive build info for annotations to an iterative algorithm
829f78316 Make Package/Module to extend Const
bb3c9d47c Fix the frames' iPC handling during call/return
711bfc3da Add native Module/Package implementations
1bfb832bd Prepare for TypeSystem implementation
d310f488b Add a simple test for a Ref<Struct>
384fb3ae2 Allow creating a Ref for this:struct
20952a4f3 Make NameExpression representing a property of a class *not* be an "identity mode"
47d8ea037 Fix "this:module" type support
15a327d73 Changes to module & reflection APIs
49ff7e58b Fix msiing error reporting issue caused by SimpleNameResolver
d65a8f8f9 Fix a private enum visibility issue
591b36ce8 Revert incorrect submission: Simplify "getMethodCallChain" API (946e2bfa)
92bac903e Preserve auto-narrowing generic parameters for a required return type
182cdffb7 Simplify findMethods() implementation and more
6486b0c7c Fix an auto-narrowing resolution bug in VirtualChildTypeConstant
cba873fa2 Fix a typo
aa01761bf Fix some newly uncovered subtle compiler issues
7ef217df3 Fix containsUnresolvedContribution() algorithm
b366283f3 Resolve implicitly added contribution types
1834ad905 Mark implicit generic type parameters as "synthetic"
07b05c551 Get rid of a redundant assertion
d818345a6 Add peek-ahead metadata support to JSON parsing
b05dbed81 Fix a bug in a type production by NameExpression
28ebb4a15 Allow ListExpression to infer the element type from the required type
9ceca1ecc Improve error reporting for method invocation parameter or return type mismatches
a590bd8c7 Fix an NPE during error logging
8397c5692 Add Markable interface and support
f706cdd36 Improve doc
3d1d97c09 Fix the TypeInfo resolution for annotated types
2840e9c1f Remove invalid assertion
dabd6c84f Merge branch 'master' of https://bitbucket.org/xtclang/src
88a069ba9 Fix an assertion
f3e72c756 Add retargeting method to Property reflection API
d6a1503f5 Switch to using try-with-resource "ConstantPool.withPool()"
dc1c45759 Simplify Frame.introducePropertyVar() API
b8a5252e1 Add support for virtual child services
5959d374e Add JSON pointer implementation
54becd200 Minor fix for super() call chains
01e08a63d Merge branch 'master' of https://bitbucket.org/xtclang/src
0cfffb84f Make contravariant parameter check a bit more permissive
c70fa9ccf Add helper methods to Char
c97e4b3ff Make more prep-work for the "container" project
ff82c11f8 Make prep-work for the "container" project
94a7f5499 Fix/simplify a couple of uncovered run-time issues
a6a29600a Fix an NPE in error reporting
88eed9be4 Implement JSON metadata parsing
a5e7f809e Minor fixes
8235eacc8 add more Schema functionality
90d7cf6bb Add random access JSON support
814f72dde Fix off-by-zero bug
3526986c6 Fix a definite assignment bug for multiple l-values
db5ca7d40 Fix an IllegalStateException
69a16b3b3 Fix name visibility issues
6b1459ea5 Fix negative conditional service responses
44c8f7aa3 Make "echo on" a default option
b352b21f7 Make an exemption for Tuple type parameter check
6e42cf194 Simplify JSON Mapping interface
dfcfe682e Improve the invalid type parameters check
c9988ee85 Report an error message for unexpected type parameters
8f4df971c Implement TypeInfo for PropertyClassTypeConstant
3dfbf9a47 Fix property methods visibility issues
a10db5746 Make a constructor resolution more robust; fix OIS compilation
4348b34b2 Fix the "getAnnotationType" resolution for annotated types
946e2bfad Simplify "getMethodCallChain" API
128d355c2 Uncomment IO tests
f22af6047 JSON WIP
be211fc40 Add an identity-specific formal type resolution API
d3e98e839 Fix formal type binding compilation logic
5bf9f1b58 Implement native hashCode, equal for TypeHandle
fb98f8260 Mark TypeHandle as an immutable object
42824bc45 Fix handling of default method arguments by "Return_" ops
6b34703d3 Updates to JSON deserialization
42add9e9b Move _native classes to a separate module
ea85da9c9 Fix PropertyConstant.getRefType() implementation
5dd911841 Change the op registration to use the local registry
439112f90 Fix the finalizer chain handling for mixins
27cf1dc5b Fix ParameterizedTypeConstant registration logic
3f299d4a5 Prevent invocation ops from referring to unresolved types
172d603b9 Update JSON input implementation (WIP)
3bb14b19a Provide a temporary fix for the complete-ability of the ElseExpression
790441f47 Replace assertions with negative answers for unresolved types
dca490c3b Move the ClassComposition cache to the ConstantPool (correction)
70184fce0 Move the ClassComposition cache to the ConstantPool
682ddb02f Update the Copyright
8106bfc16 Fix handling of rebased class constants (trivial)
ce4c4bc8b Merge branch 'master' of https://bitbucket.org/xtclang/src
eced0ac7f Further simplify TypeConstant API
7c9358034 Simplify TypeConstant API
1bfd6f481 Make a simple correction in TypeInfo handling for native methods
c42732dd9 JSON parsing WIP
37985367d Updated error message for expected token to correctly reflect expected position
f8a72bb6a Disallow virtual child construction until the parent is constructed
bd6c26002 Change the capped method validation approach
cd1d62531 Replace an assertion with a natural exception
cdb1cd71d Update the "plan" doc
41762d94a Allow relational contribution types to be implicitly "formalized"
2e01f9a27 Remove obsolete TODO
b9b92f31f Change the error reporting approach at StatementBlock.resolveRegularName()
57268e9d5 Fix AnnotatedTypeExpression validation
701488bb6 Fix module properties access
a009f0a01 Update Reader/Writer design
5a7dfc232 Add a context aware TypeInfo API
ae162b9fb Avoid premature validation of NameTypeExpression artifacts; ensure validate() never throws
94f188f39 Remove unnecessary code path
5086968c8 Fix an assertion caused by an unresolved name
9822323de Fix PropertyInfo calculation
789c89dc0 Fix an accidental submission
fa1022e95 Allow union types to change nest-mate access for its parts
9c7d380c1 Remove obsoleted TODO; use explicit types instead of "val"
40e946d0a Fix the type info generation (method chains)  for annotated types
f5953f851 Automatically create implied formal type parameters
5ab3f4e37 Implement "identity" property on Ref natively
5fb0a378f Improve the annotation type calculation
926a08ca8 Really improve line number calculation for "fluent" method calls
7f03b89bd Improve line number calculation for "fluent" method calls
b37c2265d Improve the generic param type calculation
e9b4cbab6 Fix error reporting issues
9decac545 Fix natural code
ec5203861 Make "isDuckTypeable" check more restrictive, preventing recursive "isA" rejection
2dc1860b7 Replace a non-reproducible NPE with a natural exception; optimize out unnecessary "resolveGenerics" call
f9e5358ea Remove more no longer necessary TODOs
7f99aaa26 Add a couple of missing TypeExpression validation methods
6bf8d0eca Remove no longer necessary TODOs
238f115c2 Fix a regression NPE in InvocationExpressing
f100a2686 Fix InvocationExpressing processing for "non-call" functions containing type parameters
9d978625f Make "extractFunction*" methods more permissive
e687c499e Remove obsoleted "TODO"
3be63b627 Fix a compilation bug
734bbac70 Fix NewExpression processing for annotated virtual children (reproducer 3)
aaa046243 Merge branch 'master' of https://bitbucket.org/xtclang/src
928408cb4 Fix the code generation by NamedTypeExpression
02350f36d doc
e2aaa29dd Merge branch 'master' of https://bitbucket.org/xtclang/src
844701eb9 Update JSON serialization for TypeInfo fixes
8ca4764d9 Modify test to use label object; one TODO for lambda capture thereof
b24090cb9 Make some trivial refactoring
6fa6bdccb Fix auto-narrowing for parameterized targets (temporary)
279ee20cf Optimize short service to service calls allowing calling service to process responses without requring a local "context switch"
f20685311 Implement Array.capacity setter natively
4ea0eb9eb minor fix
cac64a3a8 Stub out duck-typing for difference types; make additional code generation changes for property references (partial fix for reproducer 4)
68bffef33 Merge branch 'master' of https://bitbucket.org/xtclang/src
92816f100 Fix property ref/var access compilation (reproducer 2)
05ea4ba4a Improve support for "this" ref
c2987c183 Move StringWriter to IO package
06e433c9b Add support for "this" ref
2426f38c1 Support references to predefined vars (WIP)
f4de604cd Fix makeImmutable() native implementation
041ab5d6a Really avoid leaking services
83048d91c Merge branch 'master' of https://bitbucket.org/xtclang/src
d4af719c8 Merge branch 'mark/service-optimizations'
ceece718f Avoid leaking services; only process services when they have work; direct processing of service requests from calling thread where possible
21e070d82 Add examples for blog
136df7817 Add a trivial "validate" implementation to BadExpression
c049c5704 Singleton service is a constant reference, but not a constant type
c5e0913d7 Fix type inference resolution for And- and Or- Contexts
9334a0ff9 Handle initialization error where frame.f_function is null
3026634f2 minor
924dcfa4d Examples for blog entries
7c9432576 Introduce StringWriter implementation
80617c5a1 Add a small correction (not currently utilized)
73ee9fa76 Make additional fixes related to "super" function invocation
c5a402b64 Fix implicit type parameters handling to the "super" call; other "super" function related bugs
384569e88 update test
f302115d2 examples for blog
0be5b24be Add ability to create this:VirtualChildTypeConstant
e84793d9d Fix to try with resources
4fbac20b6 Add temporary compiler work-arounds for ObjectOutputStream
8e1607c2d Add formal type inference for virtual children
4f14d8acd Disallow "auto-narrowing" for the base type in NewExpression
64ae7736d Fix the generic type resolution for TypeInfo calculation
a98c27484 Prevent a potentially transient TypeInfo error for an "inner" class from stopping a global name resolution
c761e435d Add an implementation for "containsGenericType" API
577a6770b Merge branch 'master' of https://bitbucket.org/xtclang/src
594ae2036 Fix Duration.toString(); service test output
d0673109a Implement default methods on JSON input interfaces
2445f9e53 Fix type resolution for "bound" functions
5ff3149f9 Add a turtle type test
e93b7f147 Make test output more invariant (for diff-ing); add a turtle type test
dc9f1faa0 Add more turtle type support (partial)
4ffcbde9d Refactor JSON Schema (WIP)
0c256d472 Update the test
b82005286 Merge branch 'master' of https://bitbucket.org/xtclang/src
cea33e04f Improve type parameter calculation logic
87fdd1cc6 Update reflection test
6d3ee45ee Get rid of the check for an invocation against a consuming method on "naked type"
086647283 Allow "revealAs(Struct)" convenience API
695b8dabe Change revealAs() signature
06b5c21a4 Fix type comparison issue
fa477c0bb Fix run-time struct-based construction issues
e86f9d17f Fix RT struct instantiation issues
c6851a9b8 Fix a cross-pool type info generation bug
813d4cdad Fix the service test; trivial formatting
5fd92f692 adds parallelism to service processing
53bb81c31 reproducer for GG
fdbad3ec7 Fix usages of getSingleUnderlyingClass()
06eb2ec3e Fix an assertion failure in NamedExpression
4552de6b9 Fix type inference for AnnotatedTypeExpression
bed4095d3 Improve elvis expression handling for nullable types
76c98ad15 Fix an NPE caused by a duplicate name
16a1255e0 Improve AnnotationExpression validation and type inference logic
e2a166594 Allow trailing commas in various literals
c80b39c92 Temporary fix
359477022 Fix for issue caused by number classes relocation
32d3e5a05 Fix a number of newly uncovered bugs
80e4a2ef3 Fix a CME TypeInfo; improve the duck-type checking algorithm
ea429a55f Improve formal type inference resolution
6db1c5cd1 Cache the ConstraintType on FormalConstant classes
bf38fb612 Fix "type cannot be parameterized" bug
90a2d82b1 Fix "infinite type recursion" issue
ed6c2c637 Fix some natural code
30355531d Fix a couple of findings
58d8dc947 Add new JSON serialization interfaces
59deb44a3 Add "to literal" uspport to Number.
23c63bb5a Fix NPE in TypeConstant.layerOnMethods()
98e22f813 Fix an assertion in MethodInfo.capWith()
6c9101e71 Fix the run-time support for invokeT ops
ef700d755 Add support for struct-based constructors
4b806aaec fixes for types
a9926012e fixes for types
7d382f5ed Fix a number of TypeConstant API and compilation bugs
8734be219 Add native "toString" implementation for Struct types
73d5bd5e6 Improve the "consumesFormalType" algorithm to account for RO properties
b3246c076 Fix a synthetic signature generation (trivial)
d42949b46 Fix a trivial bug in ClassStructure.producesFormalType() (which exposed a number of unrelated issues)
f6118b7a2 Add native equals/compare implementation to function handles
0b1f28820 Allow a formal type to be relational (part 2)
e55256bc4 Allow a formal type to be relational
b9d22eaa6 Fix a couple of outstanding TODOs
9782d30f3 Add support for validators
7dcd6fa53 Ensure the annotation parameter matches the constructor parameter type
e95e3d6d6 Add API for reference identity objects
59496393b Remove unused imports and classes (trivial)
6813fc07f Fix "finally" execution for more than one mixin
647856cab Fix construction for annotated classes with non-constant annotation parameters
b769484d2 Fix the doc and rename the argument accordingly
3dec9bd5f Add overflow and infinity support to decimal numbers
77f295a36 Improve "toString" for unary ops
07d3655bc Improve "toString()" for SequentialAssignExpression
a0a12f558 Improve a check for potential method overrides
438cc31f8 Remove no longer necessary compiler work-around code
b699d5ca7 Fix switch-related type inference issues
5dbc8d404 Fix InferringContext to promote all the narrowing info
2eb4ecaf1 Fix try-catch reachability issues
dfdaf9347 Fix a trivial NPE
46fd61785 Disallow unassigned values to be "Move"d; improve exception text
a124b8f0e Fix code generation for "try" with multiple catches and "finally"
3b014c64a Fix the reachability calculation for IfContext
52b40ee2f Fix a CatchStatement code generation bug
29d18ac4f Improve "Number format exception" error messages
689dc04d7 Fix definite assignment issue with for/while infinite loops
141f6edfa Introduce JSON builder, and direct vs buffered JSON printer
473959e04 Improve error messages for some common coding mistakes
7fedff003 Allow sub-classes to add return values to overridden methods
f23f14a58 Fix an assert caused by a short-circuit invocation
4f132ea68 Fix the assignment impact from non-completing branches
59cbbc991 Fix a typo (trivial)
67059a3c8 Fix compiler issues caused by a synthetic const property overriding an abstract one.
cb35f8cf0 Improve doc and formatting (minor)
659cba759 Add JSON rendering and pretty-printing
278db606c Add array delete(ix) operation
dd75431d6 Add JSON formatter
18d2c981a Add struct constructor
01b867352 Update example
69672441b Fix FP exponent notation confusion
33be6a11c Add native support for Dec64 and Dec32; fix a number of "FPLiteral" issues
a57c46fe9 Rename BaseFP class
3ec831754 Add native support for Byte[] and Bit[]-based number constructors; implement Float32 and Float16
44f5499b5 Get rid of unused cached class constants
dc24ee08c Add support for Float64
974958ee2 Fix issues of tuple initialization and deferred injected constants
b02be54fe Remove unused code
437b7373e Update the "todo" list
b4ecc719e Move all numeric types into "numbers" package
56eb3f3b4 Fix an IllegalStateException due to an unresolved signature
9be73af02 Eliminate the need to override introduceRef() for native mixins
04f7ec8d6 Fixes to reflection
73d8f2a3e Fix the compiler to handle an identity mode for properties
0eada9edd Fix assignment of conditional return values
5a720911b Temporary fix for Class construction
6570fbc0a Fix native Enumeration support (continued)
eefaab83e Improve Class construction (obtainSingleton field)
e0750130c Fix native TypeTemplate support (more)
90e80be1f Fix native TypeTemplate support (continued)
165b81381 Introduce native implementation of ClassTemplate for reflection
250bfd8de Fix native Enumeration support (continued)
ba5f4a65e Fix/add some native code for RTType
56c46e5ff Add support for Property identity (phase 1)
e19423adc Introduce native implementations of template types for reflection
71b7d3a30 Fix SwitchExpression "testFit" logic
f2808d8cb Refactor the IdentityConstant.getRefType() API
2e8eb9e7d Simplify some native code
2b266d11f Fix IllegalArgumentException with typedef structures
373c373fb Fix NPE
29b1a5f0e Provide missing Javadoc
42f344512 Fix async tuple-based API for functions and services
92d4d0a81 Implement native Function.bind() API
a3a207a9a Fix handling for non-into-ref annotations
af7e02078 Improve handling of annotated properties and vars
880b31aed Process default arg value by native "print, println" calls
d15f2db92 Fix the synthetic NameTypeExpression generation for anonymous inner classes
5416e253a Make op-codes more readable
6ce442f79 Fix the generic type name to "Referent"
9dfd64fbe Minor edits
404fd29e9 Merge branch 'master' of https://bitbucket.org/xtclang/src
99aed2808 Update Map for-each syntax to match BNF
353d1453a Improve handling of annotated properties and vars (phase 2)
56f51e240 Further simplify native construction sequence
4742185a7 Simplify native construction algorithm
d2005e30c Merge branch 'master' of https://bitbucket.org/xtclang/src
1355b7e35 Switching to "natural" Class impl
f29036f2a Fix CallChain handling of native code; minor refactoring
899778efc Introduce TypeTemplate
6ae5572a5 Minor fix to child enumeration
4009381b6 Make "extends" into a context sensitive keyword
940ac7f51 Improve handling of annotated properties and vars (phase 1)
5e2ca83a6 Add Function.hashCode() native implementation; simplify WatchVar.x
77fd9f4ca Get rid of AnnotationSupport class
0203add0a Add missing ListSet implementation
930b14c28 Add natural ListSet implementation
13e30ef44 Simplify and improve ListExpression validation logic
b6fe29f4e Further improve type parameter handling
eab703dd6 Fix the TypeInfo.getMethodById() implementation
9e4d19cb2 Avoid adding null values to the map if ChildInfo
645efafb1 Improve AnonInnerClass.processFormalTypes() algorithm
12a18e4ca Merge branch 'master' of https://bitbucket.org/xtclang/src
b0d51d648 Get rid of unnecessary error message
87f289aa6 Minor cleanup
6421d2c00 Adding reflection support for child types (typedefs, virtual child classes, and other nested classes/interfaces/etc.)
b297d8512 Rename an inner class in the test
233aa9237 Add support for Map constants
602a640a5 Merge remote-tracking branch 'origin/master'
f649e891b Add child names to TypeInfo
8285966a8 Unify some JavaDocs ans assertions for FormalConstant API
6c2468a83 Allow any Type objects to be comparable
f7f9d587c Fix error reporting from complex invocations; terminate after parsing errors
1cf4762b2 Improve type reconciliation by RelOpExpression
82a83e7b7 Improve type parameter inference for invocations
a9acd1f6d Fix handling of a formal type parameter with a formal constraint
738e5fae7 Fix natural code
07bb0ee62 Make trivial refactoring
ca846bfa1 Fix parenthesized assertion text generation
dff6ce77a Replace chain failure assertion with a natural exception
7cda386a7 Improve getMethodBySignature() algorithm
79e65d61a Update test
e4397b5f3 Widen the formal type run-time check (soft assertion)
9de2073a3 Fix invocation of methods declared inside of methods
a15616c56 Ensure functions don't use generic types
6236b2820 Fixed an issue with missing compiler error
35675914d Add a soft assert for non-resolved generic types
3a9ff6e23 Temporarily replace "Enumeration.values" call
d494620ae Fix native Array.add()/addAll() implementations
cf3d59f39 Merge branch 'master' of https://bitbucket.org/xtclang/src
d2ff3e244 Add arg type validation to "invoke" implementation
8e325fcf5 Update doc, make duplicate name collation optional
1f9f5b7b3 Remove the work-around in natural code
7fb8fb703 Merge branch 'master' of https://bitbucket.org/xtclang/src
6f102e0f0 Relax assignability check for formal "consumer only" types
b047acca8 Minor fixes
1538fae68 Merge branch 'master' of https://bitbucket.org/xtclang/src
350b56853 Merge branch 'master' of https://bitbucket.org/xtclang/src
6ee9794cc Simplify collection constructors
1e4b907b6 Supply a ConstantPool to the WatchServiceDaemon
e796ca75b Merge branch 'master' of https://bitbucket.org/xtclang/src
3b9ecc5cf Fix testFitMulti() for TupleExpression
6fdea305c Merge branch 'master' of https://bitbucket.org/xtclang/src
16d305bea Support duplicate names in JSON objects
782498504 Add HashSet data structure
d4fb73265 Prevent logging unnecessary error message
6ee5cc15c Merge branch 'master' of https://bitbucket.org/xtclang/src
2a73dadfb Improve "isA" for recursive types
b7e8489be Improve formal type parameter resolution
9d990700f Fix doc
0f465057b Change FunctionHandle model creation
7229d483b Further improve "isA" algorithm for functions and methods
85bde5f0b Add JSON parser
ec78f38c9 Fix RTFunction.invoke() implementation
ee6db60f5 Add specialized method comparison
b188df0d4 Temporarily comment out multimethod.calc() implementation
913319dbb Fix in RTType.makeHandle
be097250b Further fix in typedef type handling
3ffc171d3 Fix in RTType.makeHandle()
912d4f7db Fix typedef type handling
2e657f218 Add function invoke support to reflection
9c3fb7d7b Add parsing of "tuple'd" type param types for functions and methods
0dbe9eb5b Improve InferredContext name resolution
5552c0568 Implement method reflection for invocation
10f0200c3 Fix the test
a72e0d5ae Fix a regression in InvocationExpression; changed some natural code
28dc3a990 FIx enum handling once more
5fbf1e6ca Add reflection tests
6d18f58f8 Implement runtime reference from reflection property
6fcdfc0f7 Fix TypeHandle initialization
1f17f1f76 Debug property initialization issue
a66759412 Add multimethods reflection
3040aba80 Improve Property "isConstant" implementation
179867c71 Relax function type "isA" comparison to allow a subset of parameters
21b1eb5da Add constant property reflection
eb9c01e88 Fix a scope-related issue for the "for" loop code generation
6b1659e0f Add property "get" functionality
b9e3eae30 Add property reflection functionality
980d942dc Improve typedef support; add missing array type validation
dd60c505a Fix native constructors support
405b8300d Add constructor reflection
4bb332860 Standardize format (minor)
3e6896d65 Fix toString() for bound functions
31023de11 Update the "todo" list
b9d61744f Simplify TypeHandle creation
85675d576 Simplify and refactor a type of Type usage
29cff184e Allow bound functions to be assigned to "val" l-values
90a95ddec Simplify MethodHandle creation
201e339d5 Make some post-merge changes
01ff75e9c Add tests and fix reflection bugs
ab5fff1ca Fix the op-code generation for "bind"
e62e3f92e Add test cases
53f49dc10 Optimize CmpExpression and TernaryExpression op generation
f8fa55f6c Fix natural code
93555839f Update Stringable implementation for RT types
bb3be35f8 Minor fix
48400387d Implement Function properties
c73d6ff4f Allow duck-typing for intersection types
50cb7a186 Fix a trivial NPE and an IllegalStateException caused by non-existent import
685182351 Improve a cyclical dependency error check.
41f266518 Fix compilation issues
c04afb097 Merge branch 'master' of https://bitbucket.org/xtclang/src
3eed81e18 Improve formal property handling
698b11742 Updating natural Type code and MultiMethod
7864b3876 Fix enum initialization issue caused by native methods; add Stringable implementation to RTProperty
8ed511137 Fix a number of "reflection" issues after merge
3dd9bcb6a Add property reflection
2fcf829c9 Update doc
476ccd71e Add to native Type implementation
1cb6f11f0 Starting reflection implementation for Type and Method
62ee0518b Fix the natural code
d329d07a6 Fix an NPE in error reporting logic
b5a30a25a Fix TypeInfo handling for nested properties
a03937da2 Add more doc to reflection APIs and fix minor issues
67ddf8240 Improve dynamic type handling
88a02502f Fix merge issues
22698c4e0 Add draft of reflection APIs
2ad91b0f4 Remove unused code
161dddb87 Refactor method-by-name lookup APIs
f5fc2441d Merge Referent interface into Ref interface
8c74b87ce Refactor, push helpers down to where they are used
9b90f9dde Fix for property type narrowing in interfaces
1525e8378 Add an ambiguity check for property/method names
0ed500427 Add the type covariance/contravariance API; remove isNarrowedFrom() API
f96957bf4 Correct Char.appendTo() signature
ef46d8063 Remove old "TODO"
f8f5d2446 Add support for named variables in invocations and constructions
accab32d5 Add Function.toString() test
35f24e421 Fix native method (e.g. toString) support for Function objects
2b7d659ed Further improve readability of the assembly code loaded from disk
c3fcca398 Fix an issue with functional properties initialized as lambdas
0d89bddaf Avoid reporting potentially redundant or incorrect assignment errors
b1e7d1d5b Fix a regression in error handling
fd1785c7f Fix an NPE
190d94520 Allow local properties as invocation arguments
49c0f0057 Improve readability of the assembly code loaded from disk
d604db0d9 Document a deferred issue
e3866f0e3 Make a couple of small changes to run-time type handling
2af47a2e4 Correct a regression caused by the previous submission
c6fce604e Straighten up native support for Enum and Enumeration
a9f1c4d4d Refactor singleton initialization logic
0d4e4c2c0 Implement ListMap.ensureImmutable()
e0e426ae5 Allow virtual children for const classes
d56f43598 Fix assembly for finalizers
d7186b9b5 Ensure that a native property never require a field
cf50204f7 Ensure that makeNative() call is always followed by invalidateTypeInfo()
4d3482f9e Clean up native Enum support
c4b555687 Fix compile-time support for named variables (run-time still outstanding)
7c9f03de8 Fix an NPE in NameExpression ("this.DataType")
351a8356a Simplify error listeners handling
d37eb189f Correct javadoc for error messages
ffe799bcf Harden Component.getChild() implementation
7d9377e25 Correct the fix in the previous submission
5b3c3fb88 Add an error check for non-parameterizable types
f1b1d51da Implement "const" compile-time/run-time contract
5e87b00cd Fix additional issues related to recursive types
436a6e7db Allow recursive types
11606eb9a Fix a regression in AssignmentStatement caused by "already defined var"
12a9beefa Add deferred action item to the plan
e25b383c1 Avoid generating unnecessary synthetic properties
d9abd0e09 Make a couple of simple corrections @ TypeCompositionStatement
c1f19dca7 Remove an accidental change
63595a728 Improve ternary expression type calculation
968ca77c5 Refactor type algebra operations for relational types
c1f7fded6 Fix isA() for UnionTypes
178ecbc0a Hide "protective wrapping" warning for now; replace "CP" system property with "DEBUG"
0051a4faa Add natural stack trace to an exception text
251c465b8 Fix resolveGenericTypes() implementation for Signature of properties
cc6b4b887 Fix trivial formatting/doc typos
7e728b718 Merge branch 'master' of https://bitbucket.org/xtclang/src
81e34e00a Prevent variable declaration in LValue "hiding" an eponymous method in RValue
5d2a859b7 Improve documentation and formatting
1fff502e3 Fix Iterator API
f45094f0a Fix code production for "if" statements with multiple conditions
abc69a542 Make bound function handlers to adjust its type when binding formal type parameters
6f118adb5 Further improve generic type handling for lambdas
50425d300 Add "allowParams" argumeent to containsFormalType API
27e02da1f Rename collided private property (trivial)
5881a7577 Fix native Array.reverse() implementation
27a5165ba Fix the formal type propagation and capture to lambdas
1c044802f Ensure consistent use of "Formal" vs. "Generic" type vs. "TypeParameter" names
068e10e60 Simplify formal type handling
7642e38aa Fix an issue with narrowed formal types and formal child types
23b809e74 Fix trivial cut&paste bug
2809e77d1 Add some examples
c39b12001 Fix the cross-pool pollination problem
a52e0e86b Improve TypeInfo generation logic for annotations
d13c29431 Remove "implements Comparable" from Object to avoid an infinite TypeInfo generation loop
e7e3af078 Allow access to "duck-typed" properties
362b3d94e Fix an NPE
0146c7cae Fix the code production issue for function calls using properties that hold functions
79d482cb3 Add error checking for inapplicable method annotations
6d7bb1f51 Fix a code generation bug for "void" lambdas and ClassCast exception in NameExpression
d17889937 Simplify simple test
bde96b68c Fix TernaryExpression to allow multi-type results and  pass-through for conditional return
65ac1e426 Improve support of conditional result types
f357a6c77 Improve error reporting for lambdas
69bb611f6 Ensure proper EnumHandle initialization from native code
727bfd598 Fix an NPE
9322ec475 Improve error message for a possible name collision
59e52af67 Minor update
ada526dd8 Rename "Range" to "Interval" and rename "Interval" to "Range"
6f083b0ea Clean up Iterator
21dca2d80 Add Iterator functionality and tests
015cbc3fe Add Iterator functionality and tests
9243fd61c Add duplication and compounding functionality to Iterator
e4f6990d6 Add aggregate functionality to Iterator
64224f7e8 Fix context propagation for "if" with multiple conditions
8df354e77 Add TODO for GG
da92f7a96 Resolve duplicate import error
d324e41b1 Fix NPE if names collide
8e028c983 Update documentation to remove {@code ...} usage
670eaf8b1 Remove Collector proof-of-concept
77761673e Remove stream proof-of-concept
f38fb2d77 Update syntax coloring in IDEA
a158c3f33 Finish removing redundant "Type" suffix from formal types
133400d4f Begin process of removing redundant "Type" suffix from formal types
597990134 Merge branch 'master' of https://bitbucket.org/xtclang/src
301259deb Replace an assert with an compiler error
001f5753f Remove properties from Struct
9d375f05a Update Tuple to current code format standard
1f37889f4 Improve the contribution doc and link to Hello World blog example
b9b402f46 Another fix to contribution doc
59b8ad1b0 Fix example indentation & explanation
c8310344f Merge branch 'master' of https://bitbucket.org/xtclang/src
8c9cec847 Archive "const" behavior discussion
270860b4a Correct documentation for getting started running code and contributing
dd480201b Clean up some native code after the merge
46bd11192 Merge branch 'master' of https://bitbucket.org/xtclang/src
f98bae5cc Make test outputs more invariant to simplify comparison
d83e7f4db Simplify root Object for reflection project
474890296 Refactor service construction logic; remove some redundant code
f38b70e95 Fix native arrays construction for "FixedSize" mutability
8bac8c5d1 Rename ConstAble to ImmutableAble
9551751b3 Prevent ConstantPool mutation during construction
cb20371f9 Optimize out Move ops when source and destination are the same
8ceb6e3a0 Introduce object serialization interfaces
4a30db216 Fix run-time flow control handling for "finally" blocks
f62d65a22 Merge branch 'master' of https://bitbucket.org/xtclang/src
27e58cda1 Fix various issues uncovered by "rev" simulation
c2defff08 Merge branch 'master' of https://bitbucket.org/xtclang/src
2998ef22c Fix a typo
c38c13756 Make sure the type produced by a constant list expression is known to be immutable
ecea309ba Clarify exception message
42eac50ef Fix native "Array.ensureConst" call
bc21937a8 Merge branch 'master' of https://bitbucket.org/xtclang/src
f7a7de476 Add dependency for JUNIT
13d8bc42e Fix switch statement reachability issue
46994f9c5 Ensure verification errors during compilation are not disregarded
d17de24fd Propose conceptual database APIs
ac25a6010 Merge pull request #2 from Sprezzatura1989/master
c84b74f5c Fix Hello World for Windows
03ad10621 Update switch to use more compact notation
53a380fd8 Introduce OO example with using()
745a296bd Prevent abstract classes from field generation
0be635c91 Improve toString() for const classes
96d16204a Fix TypeInfo creation logic for mixins
51b9d78f1 Synthesize "appendTo()" for Const classes if explicit "toString()" is provided
e4026cbd1 Fix an NPE in "isReservedNameReadable"
474583e73 Remove an obsolete "TODO"
637e90e20 Improve type assumption logic for And and Or contexts
991046643 Add missing native BitArray method
3aa2bdc97 Merge branch 'master' of https://bitbucket.org/xtclang/src
8cb03e602 Introduce JSON DOM
7b81e3d93 Merge branch 'master' of https://bitbucket.org/xtclang/src
7791d1b65 Fix and improve JSON parsing
ea74c8e6f Replace an assert with a natural run-time exception
00aa4200c Fix assert parsing error (CP)
d92da5251 Improve error reporting for unresolved names in invocation expressions
e4608323e Fix native IntLiteral code to implement Stringable
04604baa1 Introduce JSON parsing
f56c928dd Fix minor issues and highlight TODOs
98f393075 Ensure that compiler prevents invocation of instance methods from constructors
caa567865 Treat corrupted .xtc file in the same way as it doesn't exist
ef328c19b Merge branch 'master' of https://bitbucket.org/xtclang/src
d20ff2cf1 Fix context processing for TryStatement w/out catches
1c32c3c30 Fix regression related to TODO tokens
afee1027a Merge branch 'master' of https://bitbucket.org/xtclang/src
b58856689 Retain value even for non-value tokens
e698c0ae8 Merge branch 'master' of https://bitbucket.org/xtclang/src
4ebf1b976 Added a missing "@Override" for String.reverse()
66d666266 Add UTF8 reader tests and fix bugs
b82f203c0 Merge branch 'master' of https://bitbucket.org/xtclang/src
23a9fa440 Fix hex / decimal confusion bug
c3e4196a7 Fix typo in comment
4a5ad2b37 Enhance test output
161d46879 Refactor xException API; add stock exception
fac27a238 Add lambda invocation on declaration test case
640a582da Minimally implement UTF8 reader
425b9a84c Introduce Reader implementations based on String/Char[] and BinaryInput/InputStream sources
f4f134793 Revise Reader interface
8e177b887 Change the test script to enable assertions
7a54ca136 Correct a mistake in the last submission
dff182ba1 Update the plan
3bbc3b21d Generate synthetic functions for Const classes
b4eccb5ca Introduce APIs for reading and writing textual data
e6c747874 Consider rotation operators
d6731c41c Add native methods for array and number types
f24279d98 Update the plan
fe330f885 Introduce support for Java data stream format
7d86f1b7f Add the IO test to the "all tests" script
c63e83408 Optimize TypeInfo invalidation
9bd5b4c98 Correct native byte array instantiation
d5e290e78 Reduce the IO test output
1b89e8d2d Fix the TypeInfo state transition logic; reduce the IO test output
407525eae Introduce stream tests.
729c4fc33 Add packed input/output data streams.
5a62622b8 Correct a couple of mistakes in the last submission
51c778980 Generate compiler errors/warnings when "is" test is incorrect/suspicious; allow dynamic type testing
42af78b41 Fix a trivial "return" omission
8687e9aed Merge branch 'master' of https://bitbucket.org/xtclang/src
f8d3c131a Create Byte[] stream implementations
a22385fd4 Correct natural code
fd2202886 Merge branch 'master' of https://bitbucket.org/xtclang/src
bf0c7e8ec Augment IO Stream interfaces to support bounded streams.
96a990a59 Remove already fixed "TODO"
43932c09a Corrected resolveContributedName() implementation for ClassStructure
8e8c7f925 Improve error reporting for missing args
cfc505b6f Improve type inference for "if" without "else"
71d44a0c2 Fix isInterfaceAssignableFrom() implementation for UnionTypeConstant
3e61e15ad Correct the "resolveAutoNarrowing" logic for ParameterizedTypeConstant
bf58e3197 Improve error reporting for missing methods
5b2ae5ec1 IO Streams
e62e15041 IO Streams
13a95e1d2 Improve TernaryExpression to resolve formal types in order to find a common expression type
9546ee760 Fix post-merge issues (restored some of part 1 changes)
fe756fadd Fix post-merge issues (part 3)
a7891df42 Fix post-merge issues (part 2)
4cd57c7dc IO Streams
84fe17844 Fix post-merge issues (part 1)
4d4f94f0a Array and numeric type work
234c014ef Improve validate() processing for NameTypeExpression
8601af274 Allow capping a virtual Var method with a private property accessor
e335dfa19 Improve error reporting for incorrect types
7d308f4b5 Improve validate() implementation for various TypeConstants
a1843d0b2 Improve CmpExpression to allow formal types comparison to their constraint types
8387a5e15 Update shared project settings
ff291f260 Correct previous change (in commit 5256a567c0a197ece55796bddcceaadb308f268f)
68c49b440 Fix a potential NPE
5256a567c Introduce TypeConstant.resolveConstraints() API
45a1fcbbb Restore TestSimple
44bfc54c0 Update numeric types and conversion method names.
618f90293 Allow declaration of sequence types (e.g. "Int... sequence = [0, 1]")
dac0bd049 Allow [private] constant properties in functions
a9cffe7ca Slightly optimize AsExpression code production
e492a0d40 Clean up more out-of-date TODOs
eda49dc67 Clean up out-of-date TODOs
cd76c5374 Fix the duck-typing check to account for functions
bc75d371f Allow function invocation for classes with conditional incorporates
dc46a064b Remove hard-coded dependency on the existence of a named .xtc file from a different test.
4d38452c7 Fix for parsing explicitly negative literals.
f0e13f16f Add TODOs for compiler errors and warnings.
98cd81eff Merge branch 'master' of https://bitbucket.org/xtclang/src
7eef56a58 Fix TypeInfo for classes and mixins that implement funky interfaces
805de3bf9 Correct the previous fix (bc9a8a60649c6beb649401e23933852f5bfb0db5)
bc9a8a606 Improve InvocationExpression error reporting
3a0d86d7d Merge branch 'master' of https://bitbucket.org/xtclang/src
95f212960 Avoid recompilation of Ecstasy module when only a test module changed
7b1e448c1 Fix a couple of trivial things
5398257cb Introduce Constant.isValueCacheable() API
32189d0d1 Simplify Array.Orderer and Array.Hasher by mixing a common base
be21d18a3 Improve formal types handling
f07695171 Fix documentation mistake.
ba3a58688 Merge branch 'master' of https://bitbucket.org/xtclang/src
b13c6cb61 Update shared project settings
f1ab0aa0e Turn the FormalConstant interrface into an abstract class
c56efe920 Rename UTF exception.
44f9a28ac Fix the formal type narrowing approach
b9aa9dd00 Utilize the distributive property of the Type type
c46c8630c Introduce TypeConstant.containsFormalType() API
a22ea522e Update shared project settings
5ba94371b Fix generic name resolution for formal types
0051bd31f Fix TypeInfo generation for types with multiple conditionali mixins
51b31eef9 Initial check-in for the "xvm" profile settings
ebb32e644 Merge branch 'master' of https://bitbucket.org/xtclang/src
6978e0c99 Initial check in
c65604bd6 Fix project categorization of "bin" and "doc" directories.
11d29abef Fix missing quotes in BNF.
5857e37a4 Standardize IDEA settings for code style.
efb004825 Fix the test script
e0c936b1f Move tests to the "manual" dir
add66f7e5 Make Array conditionally Ordered; add Nibble and Bit support
d6b935d5c Remove unnecessary type resolution
6de5c0a4a Merge branch 'master' of https://bitbucket.org/xtclang/src
3b98cc34c Update Intellij IML (project) file.
54ea9fbd6 Add Intellij IML (project) file.
0c36010df Add Hello World example.
443fdce47 Make trivial refactoring
8bc7dbcc3 Fix a couple of outstandiing TODOs
3d8e05033 Merge branch 'master' of https://bitbucket.org/xtclang/src
92c524af7 Report a compilation error for parameterized formal types
0afaf0b68 Explain required option for JAVAC on Windows.
ddd53490a Remove a number of resolved REVIEW items and unused code
2478a56c4 Replace special charachters in the comments that fail to compile on Windows
7d75fd2c0 Allow static child interfaces
22afeba2e Merge tests for inner/outer classes
2850128b6 Fix private method property initialization
a1bf36f55 Add a ConstantPool method to register Annotation constants
d094a9dc2 Implement Unsafe numbers
19e3dbe94 Improve error reporting for misspelled variables
e039e1769 Make TypeInfo for annotated types to refer to the original type
050422a8d Improve TypeInfo generation for mixins
ceb743168 Report a duplicate method signature
63dc35ef7 Remove a number of outdated "review" comments
37a12d148 Fix an outstanding TODO
b6955c7da Allow loading and running serialized modules
c50f8d936 Temporarily serialize the common type until the verifier support is implemented
32f051561 Allow address resolution to account removed op-codes
314de2ae9 Fix various ops deserialization issues
36ccf5001 Make trivial refactoring
cf09f3863 Revert erroneous fix
3cf7af41b Fix Version constructor based on a canonical string
f1646f396 Add missing "default parameter count" field to the serialized image
474dddd6c Remove orphaned method structures created temporarily by LambdaExpressions
cf14f70a0 Fix component deserialization logic
2cd8b346a Fix stack trace "one off" bug
7c4021bfa Refactor and fix constant deserialization logic
24d584aea Fix GuardStart address resolution logic
b60cae6b6 Fix various deserialization related op-code issues
e50ff143a Make trivial refactoring
aabd30ea7 Implement remaining Ref methods
a835f1cf4 Implement Ref.maskAs(), Ref.revealAs()
d53228261 Fix code generation for conditional assign statements
352d64523 Implement delegation support
3c30422ea Verify definite assignment checks for short-circuit expressions
739491b48 Merge pull request #1 from cpswan/cpswan-Twitter
c96613a57 Fix a type in the contributor page
fbd1e143e Update the packed integer format for variable length compression up to 512 bits
5376873e4 Clarify rationale and requirements/non-requirements for contributor agreement
57e3c6749 Archive a draft Wikipedia article
95bbd9891 Merge branch 'master' of https://github.com/xtclang/xvm
496825c23 Add link to Apache contributor agreement page, and correct right border in license text files
d2fe752dc Link to Twitter profile
cbd61c409 Merge branch 'master' of https://bitbucket.org/xtclang/src
ce3e9dcc7 Revert "Remove unnecessary code" and add a missing check
368c4c36a Fix invocation of methods with redundant types and conditional return
bc2571e77 Update example
1879dce1d Introducing specific exception for type-cast incompatibility
a80d52e89 Add license file to root directory so that GitHub sees it
6bf454236 Add tests to the test collection
1f7810dc1 Implement Ref.instanceOf(Type)
da823e4e5 Merge branch 'master' of https://bitbucket.org/xtclang/src
2467ee170 Add readme files to key directories
dee8b55f8 Fix the Invoke ops code related to native chains
f58983bba Fix a typo
09e7c6747 Fix a broken link
c768e0b79 Improve readmes and add code-of-conduct and contribution pages
89833f682 Improve the plugin script a bit
11475b058 Merge branch 'master' of https://bitbucket.org/xtclang/src
5bcf70a9a Update the Idea plugin script
89f52d1c5 Make some trivial renaming and re-factoring
d2f6db42c Fix a typo
b71e0b7f0 Apply the desired licenses and update readme
f51f08aea Merge branch 'master' of https://bitbucket.org/xtclang/src
fd8d4555f Prepare for first public push
0469bb5de Update personal TODO list
037095cbd Improve compilation error reporting by lambdas
5debf264b Add integer overflow tests
f8c5ba770 Change an error message for "this." prefix usage
16a512984 Fix a ClassCastException during a TypeInfo rebuild for out-of-date auto-narrowing types
cc005051e Remove unnecessary code
997eac1ca Add support for arrays of run-time (but not compile-time) constants
9a76686ac Allow nested "private" properties to be unassigned
c0cdb8571 Add short-circuit support to for() loop "init" and "update"
8b71b883f Allow non-int index for I_Get; remove I_Ref, I_Var ops
0f3a56abd Simplify the simple test
27f721645 Improve error processing for unresolved types
25314562e Add short-circuit handling for "if" condition
9d36eade4 Change the equals/compare implementations
3b422bcc9 Disallow "Null?" (and similar) constant short-circuit expressions
a7038ec8f Determine "effectively final" for method parameters
5b2e84bda Add compiler error checks for InvocationExpression
e982f3375 Merge branch 'master' of https://bitbucket.org/xtclang/src
479b61742 Prevent a naked type to be used for consuming methods
cd29b3b31 Improve whitespace
44e0f905b Improve definite assignment
695e8e7e5 Improve definite assignment
f7b6037ba Improve function layering in the TypeInfo
7ce03e65c Change the file events test
93caf13c0 Merge branch 'master' of https://bitbucket.org/xtclang/src
729cc2c7e Make "static" inner classes and interfaces non-virtual
f56dbda02 Fix a typo
42abe7bc9 Add some natural code for Enum
2c61d972e Remove NIO incompatibility with Java 11 or later
619a4c8c1 Allow function resolution to fail at run-time
03c796e7f Change the equals/compare API
328112d7e Trivially change the test
6110e122e Save an example
320013822 Fix getMethodBySignature() implementation
88d7141ef Make some simple changes
b7a605615 Make FormalConstants to extend NamedConstant
6fc94c414 Merge branch 'master' of https://bitbucket.org/xtclang/src
02d56d989 Fix TypeInfo for formal types to retain the identity chain
3f8241597 Reduce delegation to virtual methods only
abf5d50cb minor refactor of TODO/throw expressions
594ccf54c Keep functions in the TypeInfo keyed by the "real" id
900677ad0 Add compiler error checks
acfc4022f Update the plan
0fca94196 Optimize a cross-service property getter
c78cf5645 Improve toString() for synthetic frames
54c6d758f Start a discussion re: functions declared by interfaces
3524ce871 Rename Duration properties
4937f77ef Fix an infinite loop in ConcurrentHashMap caused by a recursive call
0918da299 Fix a trivial error handling issue
be9ec67b7 Renaming file open() options.
9bd27c2b8 Minor test / example.
c79ebd2ee Correcting BNF.
cc21ccd74 Fix Timer to emit events on the caller's service
8527f781f Implement FileNode.watch() API
000e523d0 Make async invoke request API more flexible
8126d595c Merge branch 'master' of https://bitbucket.org/xtclang/src
a0f177d21 Make an active Timer to mark a container as "not idle"
2a93fe21e Minor post-merge fix for GG to review.
1e62a5c32 Merge branch 'master' of https://bitbucket.org/xtclang/src
7f845022e Intermediate stable state on Definite Assignment project.
7574da711 Change access to some ClassTemplate methods as "public"
041d2440a Merge branch 'master' of https://bitbucket.org/xtclang/src
cea50aec7 Change the dynamic ref handling
3de0ace1a Make trivial refactoring
98f3780fb Spec updates
41e2bdddd Minor doc change.
90444c764 Merge branch 'master' of https://bitbucket.org/xtclang/src
e03fa05a1 Rename ShortCircuitStatement to GotoStatement
a30e105ef Make VarInfo retrieval safer
5d451fe88 Fix reachability issue for conditional asserts
dccfa9b15 Merge branch 'master' of https://bitbucket.org/xtclang/src
71b49dd62 Fix parameter binding for InvocationExpression
04bcdfd77 Added support for "first time only" and "sample rate" assertions.
df18efc3c Make Assertion extend IllegalState.
d47bb3a67 Updated BNF doc.
6546138ba Fixed bug with debugger breakpoint.
99838d950 Add support for specific exceptions to "assert" statement, and print details of values that contribute to the assert condition.
4417241f7 Merge branch 'master' of /Users/cameron/Development/git/xvm
5bede3d22 Merge branch 'master' of https://bitbucket.org/xtclang/src
240fafeef WIP - assert
757faf898 Merge branch 'master' of MacPro:Development/git/xvm
a52a8606b new TraceExpression
feb62c581 Fix comments
c3c8959b3 Merge branch 'master' of https://bitbucket.org/xtclang/src
5af99d755 Replace to<String>() signature with toString()
8a09c8bf1 Move InterfaceProxy initialization call
4527b4e2d Implement proxying for arguments of interface types
0c7724136 new ops: JumpNFirst and JumpNSample
7cc0a0aaa Corrected trivial mistakes
448b77ca0 WIP - assert
626718a8b Merge branch 'master' of https://bitbucket.org/xtclang/src
b55b6d085 WIP - assert
155e0f739 Merge branch 'master' of https://bitbucket.org/xtclang/src
209c4ad88 Fix multiple parameter binding
6683fc1b0 Simplify op codes calling native functions
ff7a17635 WIP - assert statement
ef8209ec2 proposed BNF changes for assert
9edf081d9 minor updates from review with MF
a0b79442f after evaluation, the Assert multi-condition short-circuit logic was reverted to short-circuiting the statement (not just the expression); removed assert:always option in preparation for additional assertion support
05a109bd3 minor updates to String-literal-from-file design to address comments from GG
b4008687e Merge branch 'master' of https://bitbucket.org/xtclang/src
f234ead83 finished File and Directory literals
895e67570 WIP - need to finish File and Directory literals (currently commented out in literals.x due to runtime error)
38c9aad14 finished native CALL_* support; working on finishing Literal support (BNF etc.)
162c4d7cb WIP - native function support
91c52a84b Doc
13f08053d post merge
fa040ced1 WIP File/Directory literals
113423793 Post merge
5968128ef explicit FileStore, Directory, and File literals for ConstantPool (WIP) - runtime constant creation for FSNodeConstant not implemented yet
4e023b28c temp hack to fix Version (TODO GG)
691335f3e mess for Gene (Version literal changes)
73b8f7b89 Post merge
0abdd4484 Duration literal - no longer require "P" prefix
7b0229459 Fix assert for multi cond; add short-circuit support to for-each
15fc525a4 Merge branch 'master' of https://bitbucket.org/xtclang/src
7f1adc9bd finished parser changes for : := ?= conditional assignment operators
d2ed798fe Merge branch 'master' of https://bitbucket.org/xtclang/src
3312f292d Allow using static properties as default values
db742dfa0 Trivial
90cecdab3 WIP parser changes : -> := (some remaining work in AssignmentStatement)
bfb3c76b7 Merge branch 'master' of /Users/cameron/Development/git/xvm
f1a97f716 Merge branch 'master' of https://bitbucket.org/xtclang/src
832535862 WIP parser changes for '?' -> '_', ':' -> ':=', and new '?='
3e34f6f9b Various natural code fixes (TODOs)
3d1c37ce8 Fixes to ElvisExpression code production
1cf2cf946 Fix the handle creation for ENUM values
8586934a2 Trivial - improve error handling
cf193af62 Added function proxying across services
41712ea53 Trivial - added lambda id to "toString"
20c129dec Merge branch 'master' of MacPro:Development/git/xvm
6a49cb333 WIP parser changes : -> :=
a0fe6a941 Merge branch 'master' of https://bitbucket.org/xtclang/src
17dbe3ec8 Merge branch 'master' of https://bitbucket.org/xtclang/src
d2db66952 WIP parser changes for '?' -> '_', ':' -> ':=', and new '?='
6e5cc1a98 Moved .xtc file for directory modules outside of the module
19ff17d16 Various FileStore changes (WIP)
09f4a88a6 Improved error reporting
cde962d31 WIP parser changes for '?' -> '_', ':' -> ':=', and new '?='
032f435d2 Duration support
eb63f0358 Merge branch 'master' of https://bitbucket.org/xtclang/src
5fbd285ef Duration literal
565be40b8 More on DateTime support
e82c8d72a Trivial - renaming
50b1773c5 Allow DeferredCallHandle to be returned by a native call
69816d478 Added an access-aware MOVE_THIS op code; simplified ClassComposition creation
a4e485277 WIP Duration literal
b54268763 fixed template-stealing-whitespace bug
69f8996bf fixed template-stealing-whitespace bug
c9c78fbb9 implemented time and timezone and datetime literals
5a3058afe DateTime support (cont.)
03ccc0ca5 DateTime support (cont.)
d9b1b4e2a DateTime support (wip)
9789390ac Merge branch 'master' of /Users/cameron/Development/git/xvm
f7439d036 WIP date and time literals
15427573b Post merge
9a3c2d364 more Date / Time / etc. support and a BUGBUG TODO GG
9edd6cbbd WIP date and time literals
10a12c80b Merge branch 'master' of MacPro:Development/git/xvm
749e2e355 TODO for GG
1712c3189 TODO for GG
9edfd53c1 Trivial
5a4044e6a Natural code
20160bfb5 Merge branch 'master' of https://bitbucket.org/xtclang/src
88b354b09 Resolved an issue with auto-narrowing nested methods
e0f75cc0a test and debug output improvements for FileStore
1e1e4c8b5 test and debug output improvements for FileStore
974be9e40 Merge branch 'master' of https://bitbucket.org/xtclang/src
644c1b439 WIP for GG (literals test)
743ea78b7 Changed the Connector to preload the core module
5449018b8 Post merge
a6706b625 Merge branch 'master' of https://bitbucket.org/xtclang/src
93bcd816a test files
204750a65 Merge branch 'master' of https://bitbucket.org/xtclang/src
087dc25bf Added missing implementations for PropertyClassTypeConstant
af923b66a WIP - directory constants - BUGBUG for GG debug
315cc9f5c WIP - directory constants
720608e62 WIP - need GG help
f06bcec1a Post merge
f345a06d1 Merge branch 'master' of https://bitbucket.org/xtclang/src
301add905 WIP - need GG help
3d0cae953 Check for a formal type constraint being a "nest mate"
90b3037c6 Allow Object to Null comparison
1cbc4669b Various FileStore changes (WIP)
26f70df68 Trivial
be318c3da Trivial runtime fixes
9386072d7 Merge branch 'master' of https://bitbucket.org/xtclang/src
c917169bb prototyping implementations for the ConstantPool FileStore
8b60a62ce Fixed NameTypeExpression to retain access and immutability modifiers for unresolved types
738af1cdb Various FileStore changes (WIP)
3181b0c61 Merge branch 'master' of https://bitbucket.org/xtclang/src
5650f453d Improved error reporting
1dbe7e644 Merge branch 'master' of https://bitbucket.org/xtclang/src
1bb820c60 added Constant support for FileStore literals
8d0b85bcf Updated plan doc
8f5eb4f48 Natural code
fce319b25 Improved InvcationExpression "nest mate" handling
84d208f8b Trivial
6e90e2359 xArray simplification
de4b32645 Added byte handles cache
153af07b1 Bytes array - post merge
d9460be1f Merge branch 'master' of https://bitbucket.org/xtclang/src
0a0af8cd0 Added Byte and Byte array support
1bf447c32 adding support for hex literals, including from include file (not working; requires byte[] constant support from GG)
c1d490004 Inner classes inside of methods or properties must be static
9945127d3 Merge branch 'master' of https://bitbucket.org/xtclang/src
dde11a16c Maintain fields order in the structure
d067c48a7 Merge branch 'master' of https://bitbucket.org/xtclang/src
11901fedb WIP - file and directory includes, templated literals, multi-line literals, BNF updates, etc.
33de3c0b2 FileStore: additional functionality
6c80e9435 Change native makeImmutable API; native async calls; exclude LazyVar from const comparison
a9d6b086f Moved "include" test to literals.x
6e570f1a8 Moved "include" test to literals.x
cd6bcd291 Completed future should execute on the caller's fiber
23e58976d file includes
0518a1104 Fixed TupleExpression to use the UnpackExpression
51cedd81e Fixed return expression
6fcba4e10 Post merge; fix in TypeInfo.findCallable()
a082d853c Merge branch 'master' of https://bitbucket.org/xtclang/src
8688aacf1 adding template support for string literals (broken; gg to look at)
fd723a7a6 Removed unnecessary code
219a153a1 TypeInfo issues with private properties and methods and nested methods
1deafb8bc TODO
d34c5e8c0 Typo
84ce2bb4a Trivial refactoring
ee0b09ea9 FileStore: OSDirectory.names()
6f61b5604 FileStore etc. (cont.)
79db38c25 Further simplification
8d0ce9b2a Simplify frame initialization API
07dc2a5a2 FileStore etc. - setting up patterns (cont.)
3d394a42b Mark an anonymous class inside of a static container as not an instance child
b6c63ff2a Create SingletonConstant for static properties with an initializer
4e67ae44c Changed runtime API to use PropertyConstant for chain resolution
4148090b0 Added "host" name to the description
b2ddc0ce4 More robust toString()
07aa2f061 FileStore etc. - setting up patterns
204e14617 Simplified native support for injections
b05fad030 Added missing "isNarrowedFrom" implementation
73356e79e Optimized run-time field handling for simple @Unassigned properties
ea4438feb Simplified object construction sequence
4967140c6 Trivial native code changes
f2b80d57a Moved service context handle "priming" to the construction time
8fd9343a6 Introduced DeferredCallHandler for native exceptions.
9e8bc75cd Prep work for semi-native service implementation
4a5b3dbff Improved RelationalTypeConstant.combineWithout()
f7186e766 Optimize VarInfo creation for invocation/calls returns
4c8275812 Fixed "equals" and "compare" handling
948d6378e Compilation for methods inside of properties
4df7ba1dd Added caching for nested methods and properties
cc52694cc Fixed compilation of methods inside of methods
acd926ca3 Allow a method declaration to follow the "return" statement
d6be8bf8a Fixed property access depth
c95b89f3e Fixed bit array calculations
1496ae160 Corrected fix 797f1e9d6b366a8f5137ee863148c8e9406ac918
797f1e9d6 Make P_Get more robust
8027cb1b2 Avoid unnecessary secondary formal type resolution of types in TypeInfo
66ee520d8 Made resolveGenerics idempotent to some extent
8c96abb4f Prevent unnecessary creation of equivalent types across different pools
91a92d6c9 Avoid unnecessary secondary formal type resolution of types in TypeInfo
aa4a0864e Made runnable (chmod +x)
0b3146f38 Correction for fix 234a71007ef58dc6844edf8fc1abc4ddb82b1bd7; "testAll" runs successfully
4fd5a2eea Allow to run multiple tests at once
234a71007 Fixed tests
9c695fd3a Post merge
c83e6bd19 Merge branch 'master' of https://bitbucket.org/xtclang/src
b22e96348 Trivial - renaming
40a8b3989 Adding implicit "implements" for Outer and Outer.Inner interfaces
deabc817b Added type inference support for ListExpressions
c7e3f2cf2 Changed syntax from "Type.this" to "this.Type"
757d324d9 Changed syntax from "Type.this" to "this.Type"
47dc621b2 Improved Tuple and conditional return handling; inference in Switch expressions
6d4d8e849 wip - change T.this to this.T
114df5dbf Fixed static properties compilation
c1525dc25 Improve native service injection handling
e28de1d45 Corrected P_Get implementation
b0d4990c7 Making "var" and "val" keywords into context-sensitive keywords
27c38a5b3 BNF & precedence changes (new "^^" operator)
77b6e22b6 wip - bnf/parser changes
2a94d52da wip - BNF & precedence changes
93a8aba08 Merge branch 'master' of https://bitbucket.org/xtclang/src
8ecc9f42b wip - file store - natural code fixes
e2390e7bb Natural code changes
1327fd938 Merge branch 'master' of https://bitbucket.org/xtclang/src
8304dee62 wip - file store - TODOs for GG
295a56801 wip - fs
9389df5db Improved NameExpression validation for auto-narrowing properties
616effb96 Merge branch 'master' of https://bitbucket.org/xtclang/src
28d9b044b wip - file store
d0f822c00 Improved getTemplate() handling
fb25cdd70 Implemented native Array<Bit> and Array<Boolean>
93e3e5788 Merge branch 'master' of /Users/cameron/Development/git/xvm
15a82bd05 wip - fs
b6e1cc06c Correction for fix 46ff82c8a6fb8e4b55f6e71efee4b56107b81a4c (Improved native method handling)
804b16b28 Trivial
8ed5052a9 Changed the CAST op to take a destination type
ced603f40 Post merge
286aaa156 Merge branch 'master' of https://bitbucket.org/xtclang/src
46ff82c8a Improved native method's handling
74444efc4 added echo() support
3c2128733 Natural code fixes
7a8b02cae Natural code fix
78175d5c2 Allow a Bjarne transformation for functions
f914f8f4a Improved context's formal type resolution
f2b12f3b6 Post merge
707ea1784 Post review w/ Mark
01169f0c5 hardening
30e7c3f77 filling in natural code TODOs
091086ade debugging changes to native int and in test for Queue / ArrayDequeue / CircularArray
8a53d7b2e Improved left-to-right inference for "new"
af79c96fc Fixed a cross-pool invalidation count contamination issue
df28469f9 Native "completeExceptionally" (not tested)
38285301e Merge branch 'master' of https://bitbucket.org/xtclang/src
02c1a0fb8 adding Closeable to FutureVar
915163c00 Added narrowing to ForStatement
9e4f8c0d5 Merge branch 'master' of https://bitbucket.org/xtclang/src
ed621c39c Merge branch 'master' of https://bitbucket.org/xtclang/src
246f97974 new data structure - circular list and dequeue on top of it
64ab1be3e Invalidation of cached return type
2105ef7a4 Trivial
b7f19919c Added missing methods for Numbers
554b7fa8b Fixed native array functionality
03c177ed9 Moved compiler failure test to errors.x
bb610cc75 Natural code fix
6a3c0bb65 Improved log message
10bbcb6e8 Fixed array's construction
98a290c68 Merge branch 'master' of https://bitbucket.org/xtclang/src
8d0f7f9eb fixes for native code
5a14cecb4 Fixed Labda's capture calculation (CP-review)
a2f825feb Trivial native code changes
6fdbdaf33 Added "Stringable" method for Enum
5d47970bf Make "default" into a static property
501cd9791 Merge branch 'master' of https://bitbucket.org/xtclang/src
2696b1b30 new data structure - circular list (dequeue) on an array
3de456e33 Missing part of the previous submission
a85c14003 Merge branch 'master' of https://bitbucket.org/xtclang/src
6ce70ef54 Change the TypeInfo processing logic for conditional mixins
6980f1f98 wip
5dfb99098 Trivial - doc
2fca3f119 Trivial simplification
30de0b68f minor fixes
926a904a1 Change the TypeInfo processing logic for conditional mixins - phase 1 (refactoring)
2e603a63f Pass formal type parameters to lambdas
e55407e69 Implemented formal type parameters inference and binding
b8f242d34 Changed run-time type resolution for automatic registers
73cc3404d Avoid calling "resolveGenerics" for functions
40d35bd00 Function's consumption/production is special
4ba79bada Trivial
a6c0f2e01 Post merge
efdefe54f Merge branch 'master' of https://bitbucket.org/xtclang/src
1f241303d Natural fixes
9b9edc2ba Improved logging
a333e13e1 Merge branch 'master' of https://bitbucket.org/xtclang/src
bc73afea1 minor fixes, removed redundant errors
e12723e0f Fixed binding for parameterized methods/functions
002005419 Trivial refactoring
27e8fef6f Debugging helper
69a60af16 Fixed NonBindingExpression processing logic
a2e2c6bf6 Invocation should use TypeInfo for union types (err.cnt=4)
6ee7cae3a Allow auto-narrowing for union types
323741b3f Implement buildTypeInfo() for Union types
1368452f5 Natural code fixes
723b7af2c Merge branch 'master' of https://bitbucket.org/xtclang/src
a312aed32 Temporary call chain fix for exploded properties with private access
0dce5cb3e minor
ed8a69b1f Simplified...
2f5d234e2 Trivial
d3b17cb33 Natural code fixes (err.cnt=11)
8f25f0d80 Avoid setting the "any" (_) type as immutable (err.cnt=11)
dbe08d24c Natural code fixes (err.cnt=15)
9c92687f4 Post merge fixes (err.cnt=55)
deec075fb Post merge fixes (err.cnt=55)
1830bb0e5 Post merge fixes
32d1cae5e wip / review with Mark
dfb95ec83 Merge branch 'master' of https://bitbucket.org/xtclang/src
549a7e05b natural code changes (not yet compiling)
b1866ab28 Add virtual parent's formal properties to the TypeInfo
b45c6e643 wip - maps
4610b486d Natural code
c92db6df5 Natural changes related to virtual children
08c284297 Process conditional incorporates in front of other contributions
c6c476ea3 Fixed TypeExpression to produce a context-specific type
7f80196f2 Natural code changes
84b3e8770 Merge branch 'master' of https://bitbucket.org/xtclang/src
21b7ddc74 wip - array etc.
26947c79b Natural code fix
ecae02bb9 Change in Context.requireThis() processing
02db0e0c1 Fix for isA() for virtual children
e78978024 VirtualChild is not duck-typable
174661ae8 wip - array etc.
b276100b0 wip - array etc.
2066ef1fb wip
b44a2095f Fixed "toString()" implementation
567b6b22c Native code change
acb088e22 wip - array etc.
1eebe8e05 Merge branch 'master' of https://bitbucket.org/xtclang/src
1fdfbaeeb Changes in the type-narrowing promotion (REVIEW CP - needs to be combined with future definite assignment work)
b57f8209e Added missing non-complete state
5c207d433 Corrected NameExpression.updateLValueFromRValueTypes()
59aa80548 Merge branch 'master' of https://bitbucket.org/xtclang/src
66fb85456 natural changes with some TODOs for both GG & CP
7268c2089 Natural code (TODO for CP)
3a94ef2eb Natural code fixes
28c9c96d3 Trivial
badf9dfb1 Implemented "Register.equals()"
8537fb92f Replaced an assert with an error
d5d0fcfed Trivial
05b0b3ac1 More natural code
55a83fc75 Post-merge natural code
a5c2681c6 Merge branch 'master' of https://bitbucket.org/xtclang/src
71c2a756b Never optimize-out the shadow register
52eb4ae6a Keep non-constrained types in the conditional incorporation type map
e53692b13 wip - hitting assertion (GG?)
bbf614680 wip - HashIndex
b929e4af2 Merge branch 'master' of https://bitbucket.org/xtclang/src
d1db2fd83 wip - map (broke everything)
a8eef9c59 Fixed Map.empty (default property impl)
0b477cc04 Merge branch 'master' of https://bitbucket.org/xtclang/src
3d094cd05 wip
e77ff00e2 Fixed the PropertyComposition call chain retrieval
383fc68df Made signatures for property initializer unique
ea8b013a2 Merge branch 'master' of https://bitbucket.org/xtclang/src
649c19208 Missing functionality on VirtualChildTypeConstant
bedf47a90 Merge branch 'master' of https://bitbucket.org/xtclang/src
82b046bdc test for GG
8d728ac83 Post review
e7305f18e Merge branch 'master' of https://bitbucket.org/xtclang/src
42bff9014 Runtime handling of Property ref value
2d2fa8dcb Corrected handling of outer this
cbe3f960d Natural fixes
8d951ad30 Fixed createInitializer() logic
64d223768 wip
4208cb966 Avoid field inflation for not Ref-annotated properties
e85ba118d Merge branch 'master' of https://bitbucket.org/xtclang/src
74ad1394b Fixed resolution of genrerics for PropertyClassTypeConstant
ebceffb1e ListMap (finally compiles)
1013282be wip - map (broke everything)
3984eb7aa Improvement for error reporting and abort of compilation on errors.
3e05c21ba Post-merge 2
3b6873296 Post-merge
06c2250d7 Merge
fea682f2f Created FormalChildTypeConstant
d9635d0b1 Map modifications (still 2 compiler errors that need analysis)
2c07c62fa wip - map
ca13d81c3 WIP maps
13cd5ba72 WIP maps
fcc43f81a Simplified method id resolution
8320d483a Typo
4108f8b5f Avoid NPE in toString()
f32d4eb30 NamedTypeExpression fix that exposes incorrect handling for "composite" formal types
da9d39697 Natural code correction
46dccacd5 wip - map
786e40fb6 Merge branch 'master' of https://bitbucket.org/xtclang/src
43091e681 wip - map
7dd153631 Fixed a catch-22 in early-stage type resolution
380931878 Trivial
23ffcf20c Test
4a972b3c7 WIP maps
c54912d27 wip
c4aedf964 Merge branch 'master' of https://bitbucket.org/xtclang/src
92b91bd1e WIP maps
ae693e636 Allowed for overriding method to introduce default parameters
048d520f6 Improved error reporting for missing call chains
0c112daeb Added "weak" isA() check for assignments to a non-parameterized left type
b1747731b Error handling improvements
a106525ed Example changes (minor)
57e5920f7 TODO from discussion with Mark
d1ca7d41e Prep work for native Class and Type implementation
cc6b24434 a few new TODOs for GG
3c5599831 fix for magnitude
cf3395a70 More native fixes
1d75566d9 WIP literals - test for GG
96d604f20 Merge branch 'master' of https://bitbucket.org/xtclang/src
906890e30 More native fixes
9de72e27d Merge branch 'master' of https://bitbucket.org/xtclang/src
97a53f2b9 More native fixes
716d558d3 wip
3de6f9ef4 Merge branch 'master' of https://bitbucket.org/xtclang/src
f607430d8 More native fixes
ebffecbef Merge branch 'master' of https://bitbucket.org/xtclang/src
d96fea4ea Bug...
7eaedaf54 Merge branch 'master' of https://bitbucket.org/xtclang/src
07da8e43b adding unsigned support (and arbitrary length support) to packed integer format
0c6e2ac7b Trivial
bb805e097 Natural fixes
5a173122a Various native fixes
75924e261 Merge branch 'master' of https://bitbucket.org/xtclang/src
077d09811 Various native fixes
22a05ee0c adding unsigned support (and arbitrary length support) to packed integer format
1a30a8924 WIP literals
41f339cc2 Merge branch 'master' of https://bitbucket.org/xtclang/src
57d28ab17 broken test for GG to examine
9e57a6cb8 Post merge
4a3a1bbc8 minor fixes
61837a082 Fixed "getOuterType" implementation on TypeInfo (still unused)
1db209541 Fixed a regression
7b43ba4f1 More fixes for anonymous inner class production
ef082d9fc Corrected native comparison
9bcc0e959 One more "nextValue" and "prevValue" correction
ddd72291b Fix for "nextValue" and "prevValue"
682602249 Merge branch 'master' of https://bitbucket.org/xtclang/src
53ddb0c5b Merge branch 'master' of https://bitbucket.org/xtclang/src
d2307a127 WIP / test for GG "literals.x"
259ca668d TODOs
b6e045004 Implemented op-based I_Get and I_Set
fdce978cd Merge branch 'master' of https://bitbucket.org/xtclang/src
9ce11d24c bnf changes (implementation pending)
5ab8f08ba Fixed const initializers for modules
53b1ed5a9 trivial fix
cf5e00a99 Fixed formal types handling by anonymous class production
563c8e496 Merge branch 'master' of https://bitbucket.org/xtclang/src
bc65e576a Duck typing fix
abd3598c5 minor TODO done: named return values now work
9edc02c78 post-merge (trivial)
3d16d1cbd Merge branch 'master' of https://bitbucket.org/xtclang/src
e677a01c6 WIP channels
561b8de12 Parser changes to fix inability to compile: "conditional (Int, Int)"
9cb9d7370 Compilation failure should stop further progress
3a65fde4b Post review
2fefa4305 Simple change in natural code
309f3b0b9 Multiple ops for the name causing a wrong method call
e761d7a85 Proper Enum construction
92d1abb58 WIP file & directory interfaces - finished initial design of FileStore, FileWatcher, FileNode, Directory and File
e52518fc5 WIP file & directory interfaces
cc6285964 trivial
a06e75ba0 TODO for GG
2100e23d7 WIP file & directory interfaces
df7ea4aa2 minor fix to ForEach (range iterator bug) updates to Path some tests in "files.x" for GG to fix
45c8d091b Merge branch 'master' of https://bitbucket.org/xtclang/src
1ae4cc240 Fixed the test
305b92f48 fix for name resolution of imports
38872021b TODO for GG on xProperty
6d7538576 Allow property narrowing for const classes
b8f81be1d Trivial refactoring
07a120281 Post merge review
4714e95e4 Merge branch 'master' of https://bitbucket.org/xtclang/src
6fbf9fa09 Merge branch 'master' of https://bitbucket.org/xtclang/src
56be613eb - FileStore, Path, etc. - WIP - Exception renaming - @ReadOnly renaming - short-circuiting expression changes - assert as a ThrowExpression
ba9282995 Simple refactoring
bdcaa52a7 Array initialization using default value
11373d203 Added a compiler error test
6fbc880db FileStore WIP
e70ee12de Deep clone for access change
9290c7bf6 Reworked anonymous class production
e95107d9f Merge branch 'master' of https://bitbucket.org/xtclang/src
5b136763c Any error should stop the code production
bfa537a46 FileStore - WIP
9b5834757 Clock - refinements
0adf10dfc Timer - refinements
d013c5099 Timer v1.1 WIP
ac8014378 question for GG :)
9a99c59cf Added missing "super.write()" calls
04327d6df Natural code
618d6c5de Fixing property layering for annotations
f29f6006d Trivial - TODO
ca5f6b7aa Simple test change
2adedbd5f Added "Bind" plan to NameExpression
3731ce46e First async service!
931dc8758 Re-work the bootstrap sequence; flattened the Ref initialization sequence
b12713dc5 Post-merge
b19f0250c Merge branch 'master' of https://bitbucket.org/xtclang/src
d41e76e2e Trivial - renaming
6b92d9180 Merge branch 'master' of https://bitbucket.org/xtclang/src
8c8ed9c86 Timer v1
464c9750a Merge branch 'master' of https://bitbucket.org/xtclang/src
9d94144fe Simple refactoring
570c5373d wip timer
d5d6fabf0 wip - timer
a4127edb6 test for GG
caa87d3c0 Added "getParamString" implementations
1e50ce1fb Implicit virtual child creation requires "this"
54d88b1bb Map to implement Stringable
8f078cd0b Fixed default initializer handling of property initializers
0a605357a Fixed the NEWC_* generation
99f3d4a89 Merge branch 'master' of https://bitbucket.org/xtclang/src
fc8174d08 post-merge - minor corrections post-merge - removing compiler error tolerance
d4f6d7f2c Merge branch 'master' of https://bitbucket.org/xtclang/src
fdb043b69 Trivial
75cddd4ce fixes (for most) on the TypeInfo invalidation; one line still commented out in StatementBlock
2e7e80e0b merge (NPE still exists)
429ab101f Merge branch 'master' of https://bitbucket.org/xtclang/src
64fed4f8c fix for invalidation (need to merge to test)
77fc01daf Added Stringer mixin
51a60f614 Runtime support for nested properties
c5d30255a Trivial
982d84096 Merge branch 'master' of https://bitbucket.org/xtclang/src
c126cb99c fix for "entry" property in map iterator
7147696c3 Merge branch 'master' of https://bitbucket.org/xtclang/src
32b5d6cd8 test fixes
64f1a447e Merge branch 'master' of https://bitbucket.org/xtclang/src
3d053e37f private property support inside method, with TODO GG on P_VAR impl
8b5de0610 Improved field access via CallChain
fa40444f3 examples - I/O conversation
a4a549ff4 trivial
90e89973c simplify BNF for properties & constants
7ffbe4af4 Trivial
65f257894 Trivial - line count bug
b6b7cfb42 Improved Var_I* ops
8a806f4aa Added handling for "outer" parent reference
fe86a0dec Fixed handling of "outer this" by NameExpression
199ee549a Trivial
476f88197 Tentative fix for the nested method layering
c600db30d Fixed a bug in IdentityConstant.equals()
887c253b1 Fix in the "capping" algorithm
f8af1c29c Merge branch 'master' of https://bitbucket.org/xtclang/src
d8af2b381 Added LValue from RValue inference for NamedExpression
f65b3d4e3 A couple of simple fixes for Register
efa597a80 TypeSequenceType should implement getGenericParamType() for "ElementType"
a855486ca minor parser changes for BNF
4e850e9e4 Improved NameExpression type calculation
52dff31fa Merge branch 'master' of https://bitbucket.org/xtclang/src
2536b07e9 dead code delimination, jump-to-jump elimination, empty-scope elimination, NOP elimination, LINE coalescing, trailing LINE elimination, etc.
6fb7e6b25 Trivial
1e3bed040 Pool validity check fix
1d9474a63 Natural code fix
a4992ab6f Merge branch 'master' of https://bitbucket.org/xtclang/src
5c4d3bda1 harness WIP for dead code removal etc.
4ede4b58e ExtHashMap get/put working!
139e1d7ee ExtHashMap get/put working!
e9b716a6e Default value for Mutability
6a990ef63 Default for Boolean
f5aa59c48 Various run-time/TypeInfo fixes
769ac2e09 Added "simplifyOrClone()" for relational types
e2d78deef Changed validateFields() to return the list of unassigned
ac7862c81 Moved getDefaultValue() API to TypeConstant
520cf37bc Changed Annotation to extend Constant
2e9e2d2f9 Simple refactoring
4a6da424f Merge branch 'master' of https://bitbucket.org/xtclang/src
65ff779af Natural fixes (temporary)
b286b06d6 doc fix
4ac1977f6 Merge branch 'master' of https://bitbucket.org/xtclang/src
cc1cfe150 fix for GG
3747083d8 adding "exception" variable to "try" label (bug for GG to figure out)
8d2bc4238 Trivial - formatting
448d797e9 More fixes for try/catch/finally
7ab5ed275 Removed unnecessary output
094f3a2f0 Corrected Guard/Catch ops
9a93b209e Trivial
63e06d406 Improved isA() for functions (err.cnt=2)
7fec1b067 Post merge
a323c9d2d Merge branch 'master' of https://bitbucket.org/xtclang/src
80b3a5420 adding "exception" variable to "try" label (bug for GG to figure out)
d7c79c285 Merge branch 'master' of https://bitbucket.org/xtclang/src
5d85802d7 Temporarily stubbed PropertyDeclarationStatement
9f2162f59 try/catch 1.0
e13f56ea0 Merge branch 'master' of https://bitbucket.org/xtclang/src
19bef2545 Fixed remaining UOEs (err.cnt=3)
8fe87b5b4 Improved TypeInfo creation for AnnotatedTypeConstant.
bc6246841 Merge branch 'master' of https://bitbucket.org/xtclang/src
29a0c4fdd try/catch minor fixes
d432f1b9a Post merge
57e323ea9 try/catch v0.9
66e750c70 Merge branch 'master' of https://bitbucket.org/xtclang/src
852e01974 Trivial fix in TypeCollector
bc80b9706 Fixed TernaryExpression for intersection types
dd858e6d3 Change the equals/compare implementation for relational types
2fe5abe8c Natural fixes (err.cnt=2/2)
e1142bfc2 Merge branch 'master' of MacPro:Development/git/xvm
4f01d94cf WIP try
563a53377 Merge branch 'master' of https://bitbucket.org/xtclang/src
8ec978af4 Fixing formal type sequence resolution (err.cnt=4/2)
de15c4708 Natural fixes (err.cnt=5/2)
00629b0d0 Natural fixes (err.cnt=5/2)
6908ba89c Made ternary expression aware of conditional return (err.cnt=7/2)
2782ed41d Merge branch 'master' of MacPro:Development/git/xvm
58695c6b7 Merge branch 'master' of https://bitbucket.org/xtclang/src
09c7a7fe7 WIP try
367dcf898 Docs
bd5342676 minor fixes
f918343bc try WIP
b96bcdc9a Merge branch 'master' of https://bitbucket.org/xtclang/src
68393f9f5 WIP try
72fa69fe5 More natural fixes
6e54f0e1a More native fixes
a01ed8184 Merge branch 'master' of https://bitbucket.org/xtclang/src
99cd66b76 fix to normal comletion detection on assert
5a0b0f317 Merge branch 'master' of https://bitbucket.org/xtclang/src
1a7398cb9 Ignore capped methods during resolution (err.cnt=17/2)
d0b94ce7a SwitchStatement !!!!!
3f2e42835 Changed "testFunction" to use inferring context
7ac15d8df More native fixes
526d44a56 Post merge natural code fixes (err.cnt=21/2)
5dd0a93f5 Improved Context.narrowType() API
9951ac268 minor edits with Gene
e58e9d738 Merge branch 'master' of https://bitbucket.org/xtclang/src
d6941d370 switch WIP - finished SwitchStatement handling for constant condition (constant case path)
5210c1511 Partial implementation of Jump_N op (native comparison)
4eb34901f switch WIP
6de55dfdf switch WIP
b737e9805 Fixed an issue with continuation to return a positive iPC
49137d6e6 Merge branch 'master' of https://bitbucket.org/xtclang/src
be746cfe0 Small correction with large impact
d56e78b9d More on numbers as array of bits.
5960885a0 Allowed "protected" constructors
cadf5f04a Turned numbers into "const".
559f6bef4 switch WIP
0198efbbc Merge branch 'master' of /Users/cameron/Development/git/xvm
2aed4718e switch WIP
2ae9c5cf6 simplified non-completing context handling
52a46c08a Merge branch 'master' of https://bitbucket.org/xtclang/src
7a300835e switch WIP
457ca9daf Merge branch 'master' of https://bitbucket.org/xtclang/src
73ea26587 switch WIP
3aa17328f Made "Abstract" a well-known annotation
dafe7e8c7 Fixed isImmutable for relational types
36666e66d Typos
1ab39130c Merge branch 'master' of /Users/cameron/Development/git/xvm
be3c98524 switch WIP
c88c06fdf More on PropertClassTypeConstant
618665c41 Post-review
3dd1915c3 Support for Ref mixins (err.cnt=9/14)
42c2ea4e3 Merge branch 'master' of https://bitbucket.org/xtclang/src
b9e44a5a8 minor fixes / formatting improvements
bcf26ad48 Merge branch 'master' of https://bitbucket.org/xtclang/src
fd3db2004 switch WIP - stable check-point; CaseManager refactored into SwitchExpression
688f772b8 switch WIP - stable check-point; about to refactor in the new CaseManager
caf310b5d Trivial
ff0a8b93c Removed mapTypeParams from a number of method calls
5ea50868f switch WIP
62e874d38 Corrected handling of Ref-annotated properties
b68e6c2c8 switch WIP - refactoring for switch stmt
5ef73b597 switch WIP
c4c40f6dd Fixed a regression by the previous change
a50bab8ad Merge branch 'master' of https://bitbucket.org/xtclang/src
52162ba0e Merge branch 'master' of https://bitbucket.org/xtclang/src
5dbc8d314 switch WIP - added JMP_VAL_N (GG TODOs)
9b7548e89 Property access optimization for singleton classes
074db428e Fixes in runtime
70df2f44c Natural code fixes
e84d06d1a Revert accidental test change
87d3239ea Natural code fixes
deffe5c62 Account for type parameters in validating default args
1146699ca Merge branch 'master' of https://bitbucket.org/xtclang/src
b455a583e switch WIP
b2888013a Fixed support for @Unassigned properties (err.cnt=9/32)
55cddb664 MethodDeclaration and TypedefStatement don't emit()
ef9db1ad2 Added "unsupported" features to TypeCompositionStatement (err.cnt=9/33)
f6552d0d4 Natural code fixes
8efd5ccd1 Merge branch 'master' of https://bitbucket.org/xtclang/src
39efe70f5 Add right-to-left inference to ReturnStatement, NewExpressio and InvocationExpression (err.cnt=9/37)
0dd9be9d8 Natural code fixes
57f5d19cb Created a MethodDeclarationStatements for "finally" block
8b742ad7f switch WIP
0228a857c Trivial - name change
6674e3fcd Improved getGenericParamType/containsGenericParamType implementations
23f2385fe switch WIP
3ecd901d9 Simple fix in ReturnStatement
31f8c6671 switch - stage 2
71b90c5eb switch work - first stage
ad1335a70 switch work WIP
04173ed08 Merge branch 'master' of https://bitbucket.org/xtclang/src
b61275304 Added "delegation" support to TypeInfo (err.cnt=13/37)
94110f53a Natural code fix (err.cnt=21/37)
597d9c9ec Merge branch 'master' of https://bitbucket.org/xtclang/src
ebcb5f402 Optimized ParameterTypeConstant comparison recursion
b3c6bd0da Trivial
ba7eb38a3 Trivial (err.cnt=22/37)
f1531f471 Natural code
1246cb621 Simple improvement
acb1e8931 wip - switch
97905f240 wip - switch
7239950fb switch work WIP
f1a708c0c Merge branch 'master' of /Users/cameron/Development/git/xvm
b603a0a7d Merge branch 'master' of https://bitbucket.org/xtclang/src
ceca19152 wip - switch
53fdd346b Fixing the anonymous context handling by NewExpression
dc5074951 Removed an obsolete comment
43cb28a95 Another fix in NamedTypeExpression and Map.x (err.cnt=22/36)
6e1475926 Simple optimization
267e9cc54 Improvements in NameExpression (name resolution; code gen) (err.cnt=24/36)
37aed2b2f Merge branch 'master' of MacPro:Development/git/xvm
db5fdb749 Merge branch 'master' of https://bitbucket.org/xtclang/src
92d98287c switch work WIP
354f795e4 Merge branch 'master' of https://bitbucket.org/xtclang/src
b99692ed7 Simple correction
843988d12 Fixed a regression for Enumeration compilation (err.cnt=28/36)
f41fe1ae9 switch work WIP
66309dd27 Merge branch 'master' of https://bitbucket.org/xtclang/src
5206a540b wip - switch
b2b50d191 Deferred parser bug
04805e78a Fixed default constructor generation for virtual children
1f8e15881 Added a check for recursive contributions
21d32f8e8 Merge branch 'master' of https://bitbucket.org/xtclang/src
4c70117b8 Trivial
a64e6e578 switch work
6c52fd0f1 Merge branch 'master' of https://bitbucket.org/xtclang/src
955dee3f5 updates to misc.x test, bnf for switch
51133842c Improved NameExpression handling of method references
07db933e0 Limit the "not an instantiable type" errors to one-per-instance (err.cnt=30/36)
a024a2cab Natural code fixes
192ce2bc8 Nesting test almost working (missing "DC.P.A.foo()")
b1048130f test for GG
ab23a880f Post merge (err.cnt=36/36)
497d65350 initial implementation of nesting classes logic, initial merge with
8545ae135 Merge branch 'master' of https://bitbucket.org/xtclang/src
95ca9b683 finally a stable "inner class @Override" detection
ed65e6367 VirtualChildTypeConstant continued (err.cnt=34/36)
0e02a138a Merge branch 'master' of /Users/cameron/Development/git/xvm
2bab919d5 WIP nesting classes
a7ff94501 Natural code fix
dc2ad0788 Merge branch 'master' of https://bitbucket.org/xtclang/src
c49ec2546 Merge branch 'master' of https://bitbucket.org/xtclang/src
60a88a91c wip - inner class creation
ae091eca8 VirtualChildTypeConstant (err.cnt=39/36)
a7fa40123 WIP nesting classes
a503a5d93 new ListSet data structure
1607cfbe1 Refactored type resolution for contributions
cefab7dbb wip - inner class creation
03d70398a wip - inner class creation
ad0f6b220 Merge branch 'master' of /Users/cameron/Development/git/xvm
858d28f01 Merge branch 'master' of https://bitbucket.org/xtclang/src
f5025dd14 WIP
a716400e4 Natural code
06d85f243 Relaxed the Ref comparison; correction in isNestMate()
2f3f38359 Parser fix on Cam's behalf
47a7641fc Merge branch 'master' of https://bitbucket.org/xtclang/src
f4cb5ba58 Merge branch 'master' of MacPro:Development/git/xvm
47cdf6bb7 Merge branch 'master' of https://bitbucket.org/xtclang/src
a1a22a1a0 wip - inner class creation
c83601861 Simplified natural code
6c67f6841 Refactor equals/compare support
5d4ea38dc Added an ability to resolve auto-narrowing only for the "base" type; used that API during validation to retain the parameters types
38c87c8e5 Merge branch 'master' of https://bitbucket.org/xtclang/src
522715133 Merge branch 'master' of MacPro:Development/git/xvm
bbc266e2a wip - inner class creation
d711160e3 Merge branch 'master' of https://bitbucket.org/xtclang/src
18374c427 Virtual child should check the parent for the formal type production/consumption
07c81e135 Merge branch 'master' of https://bitbucket.org/xtclang/src
9ffdacc64 Merge branch 'master' of https://bitbucket.org/xtclang/src
d776cb60f Resolve auto-narrowing during validation
df15fb3df Added support for generic virtual child instantiation (err.cnt=42/36)
1559b4baa Allowed default value for Nullable properties
fcb3499b5 Example
e1e969822 Merge branch 'master' of MacPro:Development/git/xvm
026ed0f07 Merge branch 'master' of https://bitbucket.org/xtclang/src
826e55618 wip - inner class creation
76095face Merge branch 'master' of https://bitbucket.org/xtclang/src
fa11d86cf wip - class annotations
24b51061b Test
a73c12115 Merge branch 'master' of https://bitbucket.org/xtclang/src
0502acaa6 Added local prop suport for r-values for Move ops
04de210df Merge branch 'master' of https://bitbucket.org/xtclang/src
ec9155300 Made "resolveAutoNarrowing" more robust
39936b0a2 Merge branch 'master' of https://bitbucket.org/xtclang/src
9d35bc6b1 wip - outer
deed9af0d Simplified natural code - ExtHashMap
c1fa76995 Improved method override resolution (err.cnt=41/47)
47a1502f2 More natural code
4d2e64a05 Natural code fixes
d0be62276 Natural code
610905737 Natural code
cce0e7d0f Merge branch 'master' of https://bitbucket.org/xtclang/src
92b436592 Re-introduced the TypeConstant argument to isSubstitutableFor() API that was removed in revistion 527c52f8aa3bb91beb37f52fb0bc4df19526f81b on 1/3/19
1b06a41d4 Merge branch 'master' of https://bitbucket.org/xtclang/src
e9d434104 wip - outer
96e485f38 Natural code fix
33dccee54 Fixed MoveCast to support "the next register"
340bcc84d Remove unecessary "resolveGeneric" call
d9a38cd29 Use a formal type for the name resolution
8fc6aeb94 Doc correction
0522fb475 Merge branch 'master' of https://bitbucket.org/xtclang/src
f1301ca34 Merge branch 'master' of /Users/cameron/Development/git/xvm
1676862e8 wip - outer
84d1924e2 Doc
4dedb2d36 Got rid of Byte[] to<Byte[]>() on the Const as ambiguous
ec715fe36 Deferred compiler bugs
613d250ce Trivial
8c46c9dbf examples related to nesting interfaces & classes & mixins
e256c132f (minor doc edit)
1f6485b4e Merge branch 'master' of https://bitbucket.org/xtclang/src
2c3e07624 Extended and simplified the "nest-mate" rules (err.cnt=43/46)
43bd5ac4b Merge branch 'master' of https://bitbucket.org/xtclang/src
cb5c11e0d Native code fix
527c52f8a Uniform type calculation approach for virtual children (err.cnt=43/43)
838528ce0 Example - trivial
3596f0593 Merge branch 'master' of https://bitbucket.org/xtclang/src
219ad6337 Added deferred validation for NamedTypeExpression
783c75d8e Trivial
bcaa554b0 comments
2fe7ef15c Improved the findMethod() algorithm for methods with type parameters (err.cnt=45/39)
a3309c9a0 Remove a duplicate
c65a2ebc4 Test - trivial
c97a8c1a1 Added support for property initializers and "outer" property access
4bca70f57 Regression introduced by the default argument logic
f06b62d2e Simple refactoring; explained and deferred the "checkReturnRegister" work
e553483ff Trivial
a262dfb01 Optimized code production for invocations (err.cnt=47/39)
230434267 Merge branch 'master' of https://bitbucket.org/xtclang/src
90e70cd30 Added a run-time check for the exisatnce of a virtual constructor
2e85986cd Added three NEWC_ ops
70fe24a77 More stack handling fixes
6595df960 Merge branch 'master' of https://bitbucket.org/xtclang/src
fb920557e More on stack hadling
b537daba4 starting on inner/outer name resolution work
c7f3f34cb Spelled up argument generation contract for NEW_* ops
ffe1c6bc3 More on default constructor argument initalization
1c15985e5 Added ability to narrow TargetInfo
2a5ef16e8 Cleaned up finishValidation(); some refactoring (err.cnt=47/35)
842d17bbb Post merge (err.cnt=47/35)
002d6b4f4 Merge branch 'master' of https://bitbucket.org/xtclang/src
ffd43e9f4 Merge branch 'master' of https://bitbucket.org/xtclang/src
ffb26bdf2 wip
1be81bbe5 Update on todos
0dc331523 Fixing compilation of constants (err.cnt=49/35)
d5655291a wip
a54bd282b Merge branch 'master' of https://bitbucket.org/xtclang/src
90f4c1ce2 Changed the default argument processing approach (err.cnt=54/35)
8a5528fa3 wip - name resolution - integrating into InvocationExpression
0b35eecb1 wip
2e072ed5f Typo
ab1858b0c Merge branch 'master' of https://bitbucket.org/xtclang/src
78d9a7d00 simplifying NameResolver (after moving logic to RootContext)
d0278c0c2 added import statement compilation
8fa299094 Merge branch 'master' of https://bitbucket.org/xtclang/src
f3db5867c Merge branch 'master' of https://bitbucket.org/xtclang/src
777a6d9a9 putting name resolution TargetInfo in place (WIP) - 53/35
305b674a2 Natural code fix
0b475bdad A couple of fixes (err.cnt=56/35)
4aefc17dc Natural code (err.cnt=58/35)
87b99a74e Implemented forEachMap code emission (err.cnt=59/35)
347dc1a0f Merge branch 'master' of https://bitbucket.org/xtclang/src
837755d59 Tirvial correction (err.cnt=60/35)
8428364a3 Added an OuterRef plan for the NameExpression compilation (err.cnt=63/35)
f804434e4 Merge branch 'master' of https://bitbucket.org/xtclang/src
9e349517e wip - name resolution
0ad2f52da Fix in "narrowType" (err.cnt=63/35)
041be9219 Natural code (err.cnt=74/35)
0181d0291 Added a compilation error
b247a546d Improve the validation of synthetic constructor arguments
239e22305 Generating synthetic constructor (err.cnt=75/35)
a60beb7f2 Added an error
289275b29 Merge branch 'master' of https://bitbucket.org/xtclang/src
b52d1db75 Added an error
23ebf6a35 merge 67/35 -> 75/36
6f9db76f0 Merge branch 'master' of https://bitbucket.org/xtclang/src
b62b9b1d6 name resolution improvements (error count up from 67/35 -> 75/36)
7801331e9 Changed the "enterScope" API to use the results of "simulate".
3d2fa79fc Fixing regression introduced by the last change
fa786f4fc Native impl of Stringable for Const
658cbd3f5 Merge branch 'master' of https://bitbucket.org/xtclang/src
96eeb76ad name resolution improvements (dropped error count from 69->67)
77f9cfd30 Added support for synthetic constructors (e.g. Exceptions)
bc1f0ec3a Temprorary - in leu of the default parameter value calculation
dbc296d6d More refactoring
d42c179db Trivial refactoring
50a2ee954 Remove no-longer used
9dc087257 Merge branch 'master' of https://bitbucket.org/xtclang/src
656318755 Merge branch 'master' of https://bitbucket.org/xtclang/src
b8056fc01 More toString() support
b858a7233 Remove TestApp (err.cnt=69/35)
c017ad679 Inject "common" type for well-known ops
9f46e2f23 Merge branch 'master' of MacPro:Development/git/xvm
f475577e7 Merge branch 'master' of https://bitbucket.org/xtclang/src
d6facb724 Merge branch 'master' of https://bitbucket.org/xtclang/src
04c49e658 Typo
523082dca Time formatting fix
543196914 Allow natural code for Rebase interface methods
fcc3d581b More on Array and to<String>
042a98436 Trivial fix in Date
b6dde3614 Merge branch 'master' of https://bitbucket.org/xtclang/src
a80da51b8 wip - name resolution improvements
63169f10e Imporevd args-on-stack handling, common type injection for Jump and Test ops (err.cnt=70/38)
7ca9e8cee Natural code fix
399baee9d Native code fixes for numbers
84ce247f2 Trivial
665fbaf21 Frame continuation can return a positive iPC
128023d39 Corrected use of "isLocalVariableOrStack" (err.cnt=70/42)
7ddd0d7a7 Trivial
739a5fe54 Relaxed run-time comparison check
234aeb1bb Fix in LongLong
9852aa50c Improve getMethodBySignature()
02dae9f1b Relax compare/equals patter match
8c76d2de2 Trivial
eeb58970b Merge branch 'master' of https://bitbucket.org/xtclang/src
9b5831efe Fix for "local property" mode for Var_C, Var_CN
a26a19b20 Merge branch 'master' of https://bitbucket.org/xtclang/src
51e42478d wip - anon captures
4962e8b4c Correction for toString()
7d1dfb126 Fix to "chooseBest"
4c71ad3b7 Frame as a GenericTypeResolver
a15a9f58f Correction in TypeCompostion
2e05a77bc Jump ops may need to exit scopes
cd0f1ea7c Using correct ConstantPool
eaa84cc9d Support for const properties
0aed04631 Implemented generic type parameter support for function calls
6c739bfe7 Simple fix
10217d7a4 Merge branch 'master' of https://bitbucket.org/xtclang/src
2fb835c67 RuntimeClock, Int types, etc.
012175b19 Natural code fixes (err.cnt=72/44)
59e596f68 wip - anon
f4ef1492d Merge branch 'master' of https://bitbucket.org/xtclang/src
54a8c8639 license and contributor agreement texts
e0e268060 Merged in cpurdy/readmemd-edited-online-with-bitbucket-1543957795415 (pull request #1)
8c245c956 README.md edited online with Bitbucket
4462522da More fixes (err.cnt=72/44)
02a9164a0 Post merge (err.cnt=81/44)
3f83b9900 Merge branch 'master' of https://bitbucket.org/xtclang/src
2672e3aa2 Support for "_" and natural code fixes (err.cnt=84/42)
df5e8f807 first stable new anon inner test working :)
8eb3b1788 Merge branch 'master' of https://bitbucket.org/xtclang/src
2f8c8a515 wip - anon
a7a17cd33 Natural code fixes (err.cnt=120/42)
d6174e449 Natural code fixes (err.cnt=121/42)
9c8e900b3 Optimization for UInt64
852f0681f Post merge of Date/Time (err.cnt=132/42)
6e2773d65 preparing "stable" update introduction new date/time features
153556589 Merge branch 'master' of https://bitbucket.org/xtclang/src
24afd0351 Int128 and UInt128 test
0ebcabe91 On Cam's behalf - using cached pre-parsed values for LiteralExpression
ce15c9434 Merge Gene work with local Anon inner class work and Date/Time/DateTime work
3b7f6b2b1 returning to anon inner class work; attempting to stabilize before merging
fe6f9b229 Typo
bfdc04bf0 Added Int128 and UInt128
44fc198e3 Big numbers (work in progress, but stable)
9ba59caff natural code changes - building out the Date/Time framework
02093ee04 Missing error definition
470355f67 Correction to singleton intitialization and introducePropertyVar() API
cf7ed02ad Separated native classes from "system"
c543334d4 Removed the anscient TestDriver (using TestConnector for TestApp)
dfb6b3848 Trivial
08d1dc71c Removed obsolete code
0cdba8d2e Trivial
9690d771c Exception to print the line number
273fea0a6 anon
28e381765 Removed no longer needed manual code; Changes to natural code
9ec11e687 Validate fields after construction
b6b0acc0c Correct the usage of local props and arguments on stack by invocations
164722c51 Trivial corrections for IntNumbers
cb1d6eede Trivial
a96cbb3cf Removed no longer necessary manual code
52f6e234e Removed no longer necessary manual code
4610232a9 Made Move op tolerant to unassigned r-value
7e5fc7edb One more critical cut and paste bug
39f8987c2 Filled a nuber of missing "registerConstant" implementantions
d89e5d7d1 Another critical "typo"
77a5e2a76 Fixing a critical typo
86a41a82a Connect finalizers to constructors (structures)
6a4ab2906 Doc
46c250949 SImple refactoring
470ad327a Merge branch 'master' of https://bitbucket.org/xtclang/src
6afe858d8 anon inner class wip - stable clone (?)
e647f694a Made DVar alsways "readable" (err.cnt=72/37)
cb3bc7bb5 A number of fixes (making array.x work)
f68620f67 Optimized some code emission paths for NameExpression
c2e5a85c4 Added toString() to Assert* ops
4155f4cec Merge branch 'master' of https://bitbucket.org/xtclang/src
296c25d9f anon inner class wip
2f7b90c8e Got rid of no longer necessary manual code
01368d700 Implemented PropertyRef compilation plan (err.cnt=73/37)
8b342889a Merge branch 'master' of https://bitbucket.org/xtclang/src
564aa2dca anon inner class wip
e58895b97 Implemented RegisterRef compilation plan (err.cnt=73/39)
34794cfad Merge branch 'master' of https://bitbucket.org/xtclang/src
b69027d03 Various lambda related fixes (err.cnt=73/42)
413d68078 Merge branch 'master' of https://bitbucket.org/xtclang/src
c1ae983ab Post [accidental] merge
90689de9b Merge branch 'master' of https://bitbucket.org/xtclang/src
4850a0a60 Merge branch 'master' of /Users/cameron/Development/git/xvm
4e30516d8 WIP - anon inner classes, starting on capture logic
ba258a05b Natural code fix (err.cnt=73/43)
8f4772deb Simple refactoring of DeferredCallHandle processing
adf854023 Merge branch 'master' of https://bitbucket.org/xtclang/src
b8daa6ab7 inner class re-work using clone of both AST and Component hierarchies to allow simulated compilation (similar to how lambdas were done)
dd5d14669 Using natural code for Interval construction!
dd4284a31 Use auto-narrowing info by "new"
2033f11f8 Trivial
48f6d0ba1 Allow auto-narrowing in methods (mostly for NewExpression)
5df051848 Moving the auto-narrow check to an earlier phase (correcting a previous submission)
40887b8ae Improve handling for auto-narrowing ops
077794c85 Make TypeInfo more strict for processing narrowing types
953ee2071 typo
afdb45561 Fix to NamedTypeConstant.instantiateTypeConstant()
d4cda953a Fix auto-narrowing methods
193e5c2c9 Adhere to the buildTypeInfo usage pattern across the types
e80e0223a Merge branch 'master' of https://bitbucket.org/xtclang/src
147be0cbc Merge branch 'master' of MacPro:Development/git/xvm
fccc8d523 anon inner class wip
8c148fac6 Merge branch 'master' of https://bitbucket.org/xtclang/src
1bf0f5bb6 anon inner class wip
019a9ab20 Trivial - comment
e3c58d8df Fixed the compare() and equals() call generation
b39cf438d Made getMethodBySignature() more flexible
da35d53a9 Merge branch 'master' of /Users/cameron/Development/git/xvm
9a6b47b98 Natural code changes
ff1c6d9b3 Consider innder classes for resolveClass() impl
c46407ff8 doc
17b59cb96 Solidified annotation validation (err.cnt=74/43)
79c6d55f8 Removed no longer necessary manual code
e7888c501 Post merge (err.cnt=74/43)
b76bb21d8 TODO list
51314699f Moved InjectedRef to the Ref injection list First draft of Intersection type info
475f29c52 Merge branch 'master' of https://bitbucket.org/xtclang/src
a47f0d3ef first pass on inner class construction; remaining TODO is capture analysis and property creation for inner class captures
156d5c67b Merge branch 'master' of /Users/cameron/Development/git/xvm
472e98739 WIP - anon inner classes
c87f18c96 Simple refactoring
de9f33784 Trivial refactoring of appendNestedIdentity() API
f6478d7d7 WIP - anon inner classes
d8fc267ac WIP - anon inner classes
32d407ad4 Natural code change
7948c3c10 WIP - anon inner classes
dc997ec32 Natural code change (err.cnt=67/43)
a3a8ff249 Trivial
4404f2f4b Improved CmpExpression validation logic (err.cnt=68/43)
30c21df35 Natural code fixes
b388d6994 WIP - anon inner classes
71fd8c438 Merge branch 'master' of https://bitbucket.org/xtclang/src
e3740a893 Removed no longer necessary logging
aba7fcc16 Simple refactoring (allowing ensureAnnotatedTypeConstant() to taka an array of annotations)
4bcdd36ef Trivial - doc
5ef2b60bd Added annotations to a PropertyRef type (err.cnt=66/46)
923c8aa3c Changed the order of tests in ReturnStatement (err.cnt=67/45)
87d87638c Merge branch 'master' of https://bitbucket.org/xtclang/src
4e2e348ff Got rid of some manual code
c989d5b55 Turtle type resolution fix (err.cnt=67/46)
401465d33 WIP - anon inner classes
93a61a7dd Natural code fixes (err.cnt=71/46)
6b46ac2a0 Trivial - doc
d22a8b167 Added a sanity check for resolveTypeParameter() implementation
a13123ccb Post merge (err.cnt=73/46) TC.resolveTypeParameter() - add ability to resolve formal type
0d41abc07 Natural code fixes
2c1198e4a Merge branch 'master' of https://bitbucket.org/xtclang/src
d2ca0969a WIP - anon inner classes
6ea054154 Improved on turtle type support (err.cnt=62/55)
207c893dc Fixed code generation for "finally" methods (err.cnt=66/55)
886b4437f Natural code fixes
c118079f2 Natural code fixes (err.cnt=67/55)
486147790 Moved biuldTypeInfo() logic for Tuples (err.cnt=69/55)
abe48e046 Merge branch 'master' of https://bitbucket.org/xtclang/src
50067091c Turtle type introduction - phase 1 (err.cnt=73/55)
c74cd8cd2 Hardened AsExpression
ec59dd437 The previous fix should read: "Fixes in ForEach and As"
f1a41b293 Changing the assert to a soft assert (err.cnt=84/55)
f08041a05 Changing the assert to a soft assert
537a21422 WIP - anon inner classes
e8160e3f5 Replace "isGenericType" with "isFormalType"
d7293a1f9 WIP - anon inner classes
32071bb9a wip - anonymous inner classes
ea13867b4 Added compilation of "finally" blocks (err.cnt=84/56)
04eb1b4bd TestApp
7aa9eab29 Merge branch 'master' of https://bitbucket.org/xtclang/src
b19ac4054 WIP - anon inner classes
b2ec9668a Fixed DVar compilation (err.cnt=82/56)
b663da08a Fix for "statement not reachable" after a loop (err.cnt=84/56)
778a297fc Natural code fixes (err.cnt=87/56)
97c329e69 Changed the default access for methods/properties to "public"
f5a88fddb Trivial
10069c2fb Added testFitMulti() to InvocationExpression
c0ea86e36 Natural code
862f14c6e Improvment of "resolveTypeParameter" implementations
ce12d9b7a Merge branch 'master' of https://bitbucket.org/xtclang/src
dcf18b676 wip - anonymous inner classes
5d27d0575 Natural code
dc2342730 Coloring for "do" and "continue"
f36a6f846 Merge branch 'master' of https://bitbucket.org/xtclang/src
de1d61863 WIP - anon inner classes
351f2f10a Resolving method type parameters (err.cnt=90/56)
52a9d31f6 Natural code fixes
aa1f94ea2 WIP - anon inner classes
7e0c0bf67 Natural code fixes (err.cnt=107/55)
90606cbd7 some new ops
edbcd464f Merge branch 'master' of https://bitbucket.org/xtclang/src
842a57210 fix for ?:=
6aab6ff89 Merge branch 'master' of https://bitbucket.org/xtclang/src
3d28bd2a6 Natural code fixes (err.cnt=110/82)
ef278a008 Merge branch 'master' of MacPro:Development/git/xvm
46d8397c0 filling in some missing ops (IIP_*, PIP_*)
028ffb1e4 fixes for array[n] += ... (116/63)
65267e9eb Merge branch 'master' of MacPro:Development/git/xvm
7ee4da05c testing +=
8c9b596c3 Merge branch 'master' of https://bitbucket.org/xtclang/src
ec253bf79 initial impl of op= "in place" assignments
5bda4820b Improvements for tuple handling (err.cnt=112/81)
1b3894a70 Merge branch 'master' of https://bitbucket.org/xtclang/src
8964657b9 Merge branch 'master' of https://bitbucket.org/xtclang/src
cbda17794 Merge branch 'master' of MacPro:Development/git/xvm
a57344cf1 Merge branch 'master' of https://bitbucket.org/xtclang/src
7a8459ce0 Adjusted InvocationExpression validation for "no call" case (err.cnt=121/81)
7f3d0a650 Natural code fix
5cea1b530 Natural code fixes (err.cnt=122/81)
89cd6250a Normalize contributions during "isA" processing
27c2a1809 Trivial
805755431 Merge branch 'master' of MacPro:Development/git/xvm
d6c3efe45 Merge branch 'master' of https://bitbucket.org/xtclang/src
fbfdd21df Natural code fixes (err.cnt=123/81)
4116c5f57 Merge branch 'master' of https://bitbucket.org/xtclang/src
4f897e937 minor fixes for persistent mode lists
cc97e43bb Natural code fixes (err.cnt=126/81)
db2839023 Allowing "this" and formal types to narrow (err.cnt=128/81)
646d0593e Natural code fixes
ef344a631 Merge branch 'master' of https://bitbucket.org/xtclang/src
45aaa541f wip - "op=" assignment impls
89045867e Natural code fixes (err.cnt=135/81)
da85b42a5 Tivial - comment
0ba53b4d1 Merge branch 'master' of https://bitbucket.org/xtclang/src
d4ae80651 Correction in chooseBest()
006aca0c6 finishing array access operator (except matrix support)
8eaf21d36 testing []
d68ff08dc not done yet with [] but almost there
6c35fd24b Merge branch 'master' of https://bitbucket.org/xtclang/src
478b2f273 save point on []
7bffe7542 Improved pool handling for TypeInfo creation
ce70d368d initialize slice operator implementation
fcca7a7dd wip - array access for [..] ops
b68c3602e wip - [] exprs
ba1f9aba1 Merge branch 'master' of https://bitbucket.org/xtclang/src
a8b635e5b TODO
be765dc17 Merge branch 'master' of https://bitbucket.org/xtclang/src
eaa63b5d4 resolveAutoNarrowing()  Improvement for a simple case
f574ef2e9 Merge branch 'master' of https://bitbucket.org/xtclang/src
cd898b10f wip - [] exprs
1ed9563ac Array's fixes
9dde24467 StringBuffer is working natively!
c9057df26 Invalidate all cached info during "write" phase (after compilation)
e7eb273bc Int work by Lenny (err.cnt=141/81)
c7f7b3f7e Registering native xCharArray
86d7dacfd Using the correct pool for properties
2e4331091 Merge branch 'master' of https://bitbucket.org/xtclang/src
737a454f9 More robust error processing
804ffee21 More robust error processing
2cfc535b7 Merge branch 'master' of https://bitbucket.org/xtclang/src
c39c48277 Miscellanious simple fixes
1e1bbb530 wip - array access for [..] ops
7e803ca85 Missing return
1ced5bec4 Optimized native xString methods
d2e8ee21b Merge branch 'master' of https://bitbucket.org/xtclang/src
ae975e890 minor
bacc811c7 Added native CharArray and Char
7bfee0504 Allowing default values for constructors
128bab503 Merge branch 'master' of https://bitbucket.org/xtclang/src
a13f92525 test for Gene
1b46e9a69 Trivial natural change
7a4d33262 minor fixes
fbebf8ada Merge branch 'master' of https://bitbucket.org/xtclang/src
0db8ae5b1 implemented String split() and indexOf(Str)
48f29e501 More on narrowing context type (err.cnt=156/61)
d9de6735a Post-merge natural changes
0c7bfe860 Merge branch 'master' of https://bitbucket.org/xtclang/src
6ee503aac Post-merge (err.cnt=165/61)
511c43075 review of String / StringBuffer / etc. with GG
a72795495 review of String / StringBuffer / etc. with GG
96a356bfb Merge branch 'master' of https://bitbucket.org/xtclang/src
3930e6140 Array fixes
64ac10ac4 Merge branch 'master' of https://bitbucket.org/xtclang/src
aeb9ef3ad rewrite of string etc.
3263694cf Correction for IIP_ ops generation
0f76ca009 WIP - bnf changes for string formatting, array test
20019624b minor updates
0a58f19ac Merge branch 'master' of https://bitbucket.org/xtclang/src
367327862 minor updates
910d805e4 More on native property handling (err.cnt=153/62
6f83fb2a8 Fixed native property handling
112b2667d updates to for-each to handle Sequence (GG TODO please debug loop.x test)
bd8023737 updates to for-each to handle everything except Sequence (doc'd) and Map (low priority at the present)
de0b8a658 minor (merge)
2d1cf1440 minor (merge)
995316e11 incremental work on for-each compilation
ce1dd2696 WIP - for each
674bc7b57 Trivial - post merge
c103bc9da Merge branch 'master' of https://bitbucket.org/xtclang/src
52b6ad69a updated while and do..while for label var support
4725d791a Merge branch 'master' of https://bitbucket.org/xtclang/src
e54a936b5 First phase of narrowing context type implementation (err.cnt=156/62)
36d68ae97 Natural code fixes
b363f52b8 from discussions with mark and gene
ed71f8b0e Merge branch 'master' of https://bitbucket.org/xtclang/src
3b8835c3e Natural code fixes
d115eb67f frist!
487782957 label vars
88ab1cd6d Natural code fixes
68e21b70c Merge branch 'master' of https://bitbucket.org/xtclang/src
aefb6477e Natural code fixes
7712643e4 TypeParameter resolution issue
d1e71a206 Made compareTo() impolementation symmetrical to equals()
5f50063fb Typo
d6d8e1775 trivial temporary correction
ff283531b Trivial change in "supportEquals/Compare" API
443053b46 More natural code fixes
975b43b50 Natural code fixes
2c8d30f74 severity-checking error listener
b71530777 implementing continue handling on for and while statements
d739eb966 continue statement
6af2169d1 Natural code correction
232b1d265 Corrected previous change (err.cnt=206/66)
6aff692a3 Added markAssignment() call
38fd871ad Merge branch 'master' of https://bitbucket.org/xtclang/src
7ca5b2022 fixes for definite assignment (eliminated exception on assignment statement caused by non-null expression)
f13891213 Natural code changes (err.cnt=203/66)
ed3133a98 Merge branch 'master' of https://bitbucket.org/xtclang/src
e060af43b Merge branch 'master' of https://bitbucket.org/xtclang/src
86850075e Post merge (err.cnt=208/65)
0e8c5d688 Merge branch 'master' of https://bitbucket.org/xtclang/src
e17d174a1 Allowiing type inference in findMethod()
fd76e14f7 Merge branch 'master' of https://bitbucket.org/xtclang/src
2bfe5f726 initial "break" implementation
34307cdf3 Added ability to pass a Tuple as an argument list (err.cnt=182/69)
8b6607d5f Natural code changes
a76d74e35 definite assignment work: finished initial "break" implementation support
090c8dc5d Added a "synthetic" flag for PropertyDeclarationStatement; added a dedicated flag for type parameter properties (err.cnt=183/69)
483c28a3a working on context & definite assignment calculations (for break and short-circuit expressions)
4f64e10c0 working on context & definite assignment calculations (for break and short-circuit expressions)
81088cfbb definite assignment work: continuing work toward "break" (etc.) support
d2fed8de7 Natural code changes
f5f41b977 Replaced an assertion with a new error
7902c01f4 Natural code changes (err.cnt=204/69)
a29f34802 Natural code changes (err.cnt=205/69)
38b70481b Merge branch 'master' of https://bitbucket.org/xtclang/src
7e1d5fffd Hardened the InvocationExpression type handling; removed a repetitive error (err.cnt=207/69)
e138468ed Natural code changes
b9eb0ea2b definite assignment work: continuing work toward "break" (etc.) support
01faaf87f Merge branch 'master' of https://bitbucket.org/xtclang/src
dabd7cd57 Fixes idTuple() implementation
3a1808ca8 Merge branch 'master' of https://bitbucket.org/xtclang/src
f5d5a4bda definite assignment work: continuing work toward "break" (etc.) support
2e6634912 Merge branch 'master' of https://bitbucket.org/xtclang/src
c877d18df Improvements to type resolution (err.cnt=227/69)
84a3f5ffb working on context & definite assignment calculations (for break and short-circuit expressions)
95783c03e Removed a duplicated error message (err.cnt=228/69)
a114ed9c5 Merge branch 'master' of https://bitbucket.org/xtclang/src
ed79b13b1 definite assignment work: added &&/||/! and auto-demuxing
e652d7711 Improved error processing by MethodDeclarationStatement
79a38cd3b Natural code changes (err.cnt=239/69)
30ba80b62 Fixed regression in isA()
f7dbe865a Correction for REF_REF handling
036cc8b08 updates for while statement
b1f6b6f1a adding definite assignment for loops
a558085a2 cleaning up refactoring of Context (still one regression in lambda.x test)
c64554cf5 refactoring Context (one regression in lambda.x test)
0ddc8f558 Merge branch 'master' of https://bitbucket.org/xtclang/src
26b1c9c4e definite assignment work: if statement
67932f0b1 Added private property access within the same class (err.cnt=253/68)
bcb51ca9d Merge branch 'master' of https://bitbucket.org/xtclang/src
438aaad9d definite assignment work: when true / when false
55efbe142 Added "containsUnresolved" checks and TypeExpression validation in Tuple (err.cnt=255/68)
7f2c88355 Added natural ListMap implementation
c9edb9c5e Added the return values type validation to InvocationExpression (err.cnt=276/68)
b810e69d8 Natural code fixes
2cea64b70 debug output improvements
3912f51fa Merge branch 'master' of https://bitbucket.org/xtclang/src
99ddeafef working on range (constant..constant) for forEach
37b320173 One more cross-pollination of pools fix (err.cnt=295/68)
c229d88ac Merge branch 'master' of https://bitbucket.org/xtclang/src
7677e71ee 1) Disallowed Object to be duck-typed 2) Fixed cross-pollination of pools caused by ensureTypeInfo()
bed5505fc type-safe tuple element access via [] operator
1f2439a36 wip - tuple
3045c8624 Merge branch 'master' of https://bitbucket.org/xtclang/src
f4e01d260 test for Gene
01303d1ef Removed unnecessary native code
1014a1363 Trivial
af93cfd5f Corrected getGenericParamType() impl for relational types
e8d86dfca Another small fix
cfefe5104 Post-merge fixes (err.cnt=295/68)
e0e95fb2f Merge branch 'master' of https://bitbucket.org/xtclang/src
310a738af Various fixes
c7bdc5044 Natural code fixes
7805cd306 Merge branch 'master' of https://bitbucket.org/xtclang/src
ebe4b043b for each (first demo - has a constant pool bug for gene to look at, and one assertion with parameterized TypeConstant for gene to "fix")
d9b1a7303 Merge branch 'master' of https://bitbucket.org/xtclang/src
5f4afd278 Trivial test chemges (err.cnt=107/170)
f2fee1c99 1) Expression.findMethod(): account for type parameters and default parameters 2) NameTypeExpression: produce an enriched parameterized type 3) Intrroduced UnresolvedTypeConstant
7b10d16d0 Natural code fixes
afa03152b for each (in progress)
e2b110a12 Correction to prev submission
5009baf73 How did it ever work?
5e1fcf187 for-each work (in progress)
114b1bb0d initial c-style for() implementation (still need to handled short-circuits and definite assignment stuff), and some proposed BNF changes for if/while/for conditions
1ec3400ec initial testing of assert
57a9f0587 Merge branch 'master' of https://bitbucket.org/xtclang/src
b4e663804 first pass implementation of assert
aba9a4af6 One more natural code fix (err.cnt=112/170)
6616c176b Post merge - natural code fixes
971eda817 minor fix
d6447e259 Merge branch 'master' of https://bitbucket.org/xtclang/src
71432862d debugging new assignment logic
a47bbe454 Additional fix by Cam
ae713abb3 Merge branch 'master' of https://bitbucket.org/xtclang/src
c02ea5e75 StageMganager fix by Cam
2003b7a9e Merge branch 'master' of https://bitbucket.org/xtclang/src
e24991815 finished first pass with no ConditionalStatement; still major failures in the tests, though
63fda8533 ConditionalStatement refactoring project (continued) - added ability to strip declrations from assignment statement
1558bf3c2 Trivial
67d313428 Made compareDetails() implementation more robust
3117db290 rebuilding AssignmentStatement after eliminating ConditionalStatement.
c2b84ca0a Trivial - typo
93856b861 ConditionalStatement refactoring project (continued) - added ability to strip declrations from assignment statement
33c5918f2 refactoring to get rid of ConditionalStatement; finished initial pass on Parser.
db5d72806 refactoring to get rid of ConditionalStatement; finished initial pass on Parser.
c4df90deb Correction to the previous commit
03df37ea7 Enhanced NameTypeExpression type calculation
50bea97e6 Extending some TypeConstant APIs to relational types
714dd9846 Natural code fixes
7337c8955 starting refactoring of ConditionalStatement (getting rid of it); implementing previous BNF changes
3a4712dc8 Simplified the GenericTypeResolver API
9b5487462 starting ConditionalStatement refactoring project
42c2d0734 Merge branch 'master' of MacPro:Development/git/xvm
84c86999a tightening up bnf for declarations that will be in "if"/ "for"/ "while"/ "switch"/ etc.
b890df2b4 Natural code correction
ff5ccfe1f Post merge; added "required type" to TypeCollector.infer* (err.cnt=110/190)
c54c4f874 Fixed isA() for functions (err.cnt=108/191)
c9b5c0819 Merge branch 'master' of https://bitbucket.org/xtclang/src
487746e4e bnf changes / parser changes: adding explicit IfCondition support
9c49996e3 Merge branch 'master' of https://bitbucket.org/xtclang/src
9cacb1dd0 Fixed NonBindingExpression validation (err.cnt=109/191)
9f47b829b Improved resolveAutoNarrowing() not to lose type parameters (err.cnt=110/191)
cd988ed80 bnf changes / parser changes
e957cb250 Merge branch 'master' of https://bitbucket.org/xtclang/src
a77d6e854 Fixed duck-typing for auto-narrowed methods; Improved  type calcualtion by NamedTypeExpression (err.cnt=111/191)
503241477 bnf changes
f813f3710 Merge branch 'master' of https://bitbucket.org/xtclang/src
6cbc7e236 updates for x doc: adding statements section
b1e77d486 Natural code fixes (err.cnt=111/191)
eb7041e06 Removed generic right-to-left type inference; added specific inference processing to ListExpression and NewExpression
d7e42bbda Simple refactoring (err.cnt=111/191)
3dcbe4569 Added "two phase" arguments resolution for InvocationExpressions
b0189076c Natural code fixes
7b9b59471 Merge branch 'master' of MacPro:Development/git/xvm
2abd0cca7 bnf changes
ebd62e47c Added "two phase" arguments resolution for NewExpressions; fixed a number of parentage issues
61250a414 Natural code corrections
dfd2f0c9e Made ConstantPool.ensureAccessTypeConstant() method more flexible
1f26bc3fc Fixed an error text
1dc9c4dca Natural code correction
1a33dfa2a Merge branch 'master' of MacPro:Development/git/xvm
acda1a3a7 minor fixes while debugging with gene
1f27c6381 Got rid of Frame.assignRef(); fixed a type typo in xFunction
abb87b662 Fixed the type for bound functions
33c784934 minor fixes while debugging with gene
5acd00df8 Merge branch 'master' of https://bitbucket.org/xtclang/src
701b318b3 Fixing isA() for functions
bf71e6f04 Merge branch 'master' of https://bitbucket.org/xtclang/src
f3658889b Refactoring Frame API to fix Var_C, Var_CN implementations.
ec69187da working on multi-return lambdas etc.
b1b3dd0a6 type inference work for lambdas etc.
4f22dcb26 Merge branch 'master' of MacPro:Development/git/xvm
2b9c044f8 helper for collecting return types from lambdas etc.
d18f97e72 Correction for the temporary fix for Var_C implementation
94e561a57 Temporary fix for Var_C implementation
a635bbce2 Plan update
61506f471 implementing var capture in lambdas using new op (C_VAR)
ad2431104 Merge branch 'master' of /Users/cameron/Development/git/xvm
87a736142 Merge branch 'master' of https://bitbucket.org/xtclang/src
64617a223 Merge branch 'master' of https://bitbucket.org/xtclang/src
2e61e460d Make @Inject definitely assigned
433041eb2 Various fixes (err.cnt=144/187)
8f5796236 Various fixes
55fd17f96 Fixed the array assignment validation
a031e6a44 Allow void @Ops
14de88442 Merge branch 'master' of https://bitbucket.org/xtclang/src
bbf68dffc Implemented Var_C and Var_CN
cea709ec6 wip - removing the "auto-deref" functionality from the compiler (it moves to the runtime)
ffebe2359 Merge branch 'master' of https://bitbucket.org/xtclang/src
043c3d519 Merge branch 'master' of https://bitbucket.org/xtclang/src
81f71fd1f Removed too strict an assertion
594eb9567 new op codes for inverse of the & operator
2a42568ae Merge branch 'master' of https://bitbucket.org/xtclang/src
2071f00e9 Removed the capture var compensation hack
803d4a903 minor updates for lambda work proposal for new generic ops op-codes
fd80e490d Refactoring of ClassTemplate.ensureParameterizedClass() Changed the array creation approach
bc8c9a24a Trivial simplification
f2f9137a5 Fixied testVarCapture() and testComplexCapture()
183dd2f50 Trivial - typos
a64ae20e0 Post merge
9f17525d6 wip - LValue stuff
9ec2b3fe0 wip - LValue stuff
ccc12af10 more fixes for lambdas
cc1a4f8c0 Merge branch 'master' of https://bitbucket.org/xtclang/src
d95147126 wip - lambda captures
c07821ce3 Added stack support for MoveCast
077f87844 wip - lambda work (initial "capture" work is in)
056dfc22c wip - lambda captures
1b25693f0 Natural fixes (err.cnt=138/187)
c3ce8e988 Post merge (err.cnt=142/187)
7788f5195 Merge branch 'master' of https://bitbucket.org/xtclang/src
7661c26ba Merge branch 'master' of https://bitbucket.org/xtclang/src
fbeaa2321 Corrected Impicit type for NewExpression (err.cnt=107/209)
b0b3b8075 Trivial
8891338cd Rewrite of isA (phase 1)
abdc708fc wip - lambdas
b0235e7ad wip - lambda work
e9b5064e1 Trivial refactoring
4f58db4c9 Fixing cross-ConstantPool registration issues
f28a39daa wip - lambdas
ab5953787 wip - lambda work - finally compiling (but not running)
5278330de Merge branch 'master' of https://bitbucket.org/xtclang/src
ad9e27ab9 Merge branch 'master' of https://bitbucket.org/xtclang/src
5a9035ff1 Natural fix
d580d9497 Merge branch 'master' of https://bitbucket.org/xtclang/src
1b7809883 Merge branch 'master' of https://bitbucket.org/xtclang/src
40826378c Merge branch 'master' of /Users/cameron/Development/git/xvm
d1eea02e1 wip
08489bd74 Merge branch 'master' of https://bitbucket.org/xtclang/src
a271d26e7 Trivial simplification
1fad8af8b Moved out the CmdHandler example
f33263599 Log "not yet implemented" error instead of throwing
73dba86dd Trivial refactoring; fixed TC.isConstant() implementation (currently unused)
5e0d2ec6a ArrayIndexOutOfBoundsException fix
6e9f4f767 	modified:   src/org/xvm/asm/Register.java
f5f13246a Merge branch 'master' of https://bitbucket.org/xtclang/src
73755d3ae Merge branch 'master' of https://bitbucket.org/xtclang/src
7034765c4 Re-added a test (err.cnt=115/209)
7f89de4a6 Allowed private access to "nest mate" classes
8ee411843 Removed @Op from conditional Collection methods; added to Array (err.cnt=117/208)
1b67ba998 Fixed parent class parameterization; simple refactoring (err.cnt=119/208)
a7524935d Natural code correction
551f349e1 Test
e32d292ec A couple of fixes (err.cnt=132/208)
f927ed1b0 Added support for short-circuiting standalone statements
777b93fd6 Ignore signature collisions caused by "capped" methods
befaba9d8 Fromating (err.cnt=135/208)
a79f057be Extracted type parameter processing into collectSelfTypeParameters() method
3af13f3ec A couple of typos
0f5fff433 Fixed invocation against a property (function)  (err.cnt=138/208)
247e2ec2b Natural code fixes (err.cnt=139/208)
e4ba7b9f3 Fixed a hard to understad infinite loop in containsUnresolved impl (err.cnt=141/208)
7a19c6945 Added adoptParentTypeParameters() API (err.cnt=142/208) (fixed an error in ExtHashMap; generated one more in already incorrect Stream.x)
8a66c0995 Fixed conditional assignment (err.cnt=142/208)
5895c2c04 Chaged reporting to split compiler errors vs. not implemented: (err.cnt=161/191)
c59356b26 More on auto-narrowing (err.cnt=333)
1cedf4c81 Merge branch 'master' of MacPro:Development/git/xvm
a0238ac4e Fixed reolveTypedefs() bug
fedfbabc8 Merge branch 'master' of MacPro:Development/git/xvm
79afe5596 wip - lambdas
c24616511 Uncommented minvalue literal
bc54ec124 Natural code
83d6c93ff Corrected an error message (err.cnt=343)
8840f224f Replaced TypeResolver with mapTypeParams; Fixed a normalization issue with contributions
de07d24c5 Trivial renaming
a6c70176c Simplified TestSimpleWeb example (err.cnt=343)
90dd9e7bb Incorporating parent's type params into insance child formal type; Full normalization of types for which TypeInfo is calculated
3b50f28b6 Merge branch 'master' of https://bitbucket.org/xtclang/src
8eb29b4cd Merge branch 'master' of https://bitbucket.org/xtclang/src
8885fadfa wip - lambdas
d4fcf5ffd Missing getType() impl
654d5f86c Doc
e921f4c6f Simple refactoring
347ef404a MOved TestSimple into a standalone module
65840a762 Merge branch 'master' of https://bitbucket.org/xtclang/src
bee0d802f Fixed op-support for IntLiteral
be1cb8f15 Merge branch 'master' of MacPro:Development/git/xvm
37f7993a1 wip - lambda constant
3bf5016cd wip - lambdas
a0dff4923 Formatting
7343b41ba More natural code
2a84647db Natural code correction
d28302eaa Trivial simplification
6cbc3bc28 wip - lambdas
f457eeb8c wip - conditional statements
5899d8ac4 Natural code corrections
97eaecd58 Natural code corrections
f487ff460 typo
c69d6a6f2 wip - conditional statements
eea224477 wip - conditional statements
fa7526600 Trivial
6b5e31dab Resolve typedefs before perfoming isA() analysis
3223310ce Replaced asserts with "soft" asserts
875ab005b minor fixes (imports)
e93ee99af Merge branch 'master' of https://bitbucket.org/xtclang/src
2eed9e868 Correction in natural code (err.cnt=387)
f78f35744 wip - captures
5bc3371ec Merge branch 'master' of https://bitbucket.org/xtclang/src
86d2550ea wip - statement expression
b9b77ee42 Correction in FutureVar (err.cnt=398)
601edd612 Small fix to InvocationExpression (err.cnt=402)
d2a893ed3 Small correction to short-curcuiting (err.cnt=403)
8f4105d4b Natural code - replaced (x?) with (x!=null) (err.cnt=407)
ac61c0824 Natural code (err.cnt=432)
207057d93 Imporved type resolution (err.cnt=433)
bcdd932c5 Post merge (err.cnt=438)
010c32c5f Merge branch 'master' of MacPro:Development/git/xvm
7660f8feb Merge branch 'master' of https://bitbucket.org/xtclang/src
cc864c2f5 TypeInfo for generic types (err.cnt=438)
33978e9a6 Merge branch 'master' of https://bitbucket.org/xtclang/src
afaed5dae wip - context work to support capture; adding "var" and "val" support
3674967a3 Natural code fixes (err.cnt=450)
72e819b7e Allowing private access "in context" correction (err.cnt=455)
40226728f Allowing private access "in context"
8f4cd3653 Natural code fixes
0625c3541 Merge branch 'master' of MacPro:Development/git/xvm
7da570c04 Merge branch 'master' of https://bitbucket.org/xtclang/src
e1814a774 Merge branch 'master' of https://bitbucket.org/xtclang/src
152df189a wip - context work; adding "var" and "val" support; adding Label.x for runtime loop support
7489c5399 Rename RegisterConstant to TypeParameterConstant
04f4b8412 Merge branch 'master' of /Users/cameron/Development/git/xvm
d3293aa40 wip
7d53cfb39 Merge branch 'master' of https://bitbucket.org/xtclang/src
bb71c4f4b Trivial
e080466c9 Auto-narrowing again
b948fbffa Native code
1b6b8c9fa wip - lambda stuff
65a225dbc wip
42d3736c1 Natural code
cec5d3d1a Merge branch 'master' of MacPro:Development/git/xvm
526dc002d wip - stmt expr
1b94cd14e Merge branch 'master' of https://bitbucket.org/xtclang/src
f5c784e79 Additional error reporting for non-newable classes
ea22410ad Added natural code
0b50a5af1 Merge branch 'master' of https://bitbucket.org/xtclang/src
5de741946 wip - stmt expr
cd263cfef Reverted the auto-narrowed signature explosion
072f20203 Various fixes
0e40a5914 Merge branch 'master' of /Users/cameron/Development/git/xvm
d6d645df1 Auto-narrowing again
c3a05134f Various fixes
ad376c3f9 Merge branch 'master' of https://bitbucket.org/xtclang/src
40a51ba54 Merge branch 'master' of https://bitbucket.org/xtclang/src
8636e89cb Various fixes
4d0492feb Merge branch 'master' of https://bitbucket.org/xtclang/src
ea4582bc6 Various fixes
56ef255d0 wip - stmt expr
c5fa7e610 Various fixes
f635a7a79 wip
f34c8c4d9 wip - stmt expr
47230bf4b refactoring to add context to generate methods (before adding lambda support, etc.)
e1a986aad Merge branch 'master' of https://bitbucket.org/xtclang/src
cfbebdf1c Various fixes
ebd78e466 removing enums from JumpInt optimization; testing switch expression
773487985 fixes to JumpVal on SingletonConstant enum instances
5e5aa4693 stack fix
80f1ef55e Simple refactoring
bfe5fbe78 Various fixes
6d8d330a1 Merge branch 'master' of /Users/cameron/Development/git/xvm
f9cf945ac wip
c69ae14ba Trivial
3f6815e3b Fixing a bug in findOpMethod()
4c0174c8e Resolve formal property type against the context
e4d9e5006 Changed the ops names; added isAutoNarrowing helper to signature
4c6899b9a minor
e3d81a72a Merge branch 'master' of https://bitbucket.org/xtclang/src
456c1af24 switch expression - added line numbers
5e6f219c7 Merge branch 'master' of https://bitbucket.org/xtclang/src
622ca2ccf switch expression - first pass done
c618ef1a7 switch expr WIP
68b6cc66a wip / from review
bbdb1a4c0 switch expr WIP
2022e4d83 Corrected CatchStart
d0c81866e finishing up short circuit support cleaning up tests
d1bf68555 Merge branch 'master' of https://bitbucket.org/xtclang/src
fc7820209 Changed the var introduction API
7166edd32 cleaning up null type handling
1e043513e Addedg to<Nibble> conversion
6112d3ff6 Merge branch 'master' of https://bitbucket.org/xtclang/src
38a253817 frame changes with GG
2d2082ba1 A couple of corrections
5b01718a4 Merge branch 'master' of https://bitbucket.org/xtclang/src
ed3726567 cleaning up expression adoption
3c60a0f8b Merge branch 'master' of https://bitbucket.org/xtclang/src
1c5c13920 IntLiteral.to<String> fix
825c7f5e2 Merge branch 'master' of /Users/cameron/Development/git/xvm
83fbb9f7d Merge branch 'master' of /Users/cameron/Development/git/xvm
7cea91c33 Merge branch 'master' of https://bitbucket.org/xtclang/src
b6455cbd0 wip / from review
9c90889a5 Signature autonarrowing prep work and more
625fb00cd Merge branch 'master' of https://bitbucket.org/xtclang/src
907987625 switch expression WIP
d2a48a208 skeleton for switch and statement expressions
0501abd62 First pass at MapExpression, cleaning up MapConstant, etc.
10edacdd8 NotNullExpression (postfix ""?") and ElseExpression (floating ":"), with various changes for supporting short-circuiting expressions
b7f00bc15 Natural code fixes
11ebbd145 initial else expression impl ( : ) - WIP
a0fb3e76d Merge branch 'master' of https://bitbucket.org/xtclang/src
225f0326b initial else expression impl ( : ) - WIP
2f15ab41f Added minimal support for IntLiteral
d479ac1cd Use TypeInfo to create the default initializer
ae5fa9ae1 Correction to the ".." op
583bcf5f5 Added missing argument registering
d42de118e post merge
deb90de5d post merge
5b2a1bb67 elvis has entered the building
9eb9e1c6d test is working
0f838e3e4 Merge branch 'master' of https://bitbucket.org/xtclang/src
af72e0f87 &new suntax discussion
12563891d Refactored createConstValue API
1518c4239 Merge branch 'master' of https://bitbucket.org/xtclang/src
cb75a2339 fixing CmpExpression
5284fc2cc fixing CmpExpression
3da9872b3 Relaxed the type comparison check for Test ops
4eff79058 Merge branch 'master' of https://bitbucket.org/xtclang/src
77dfba2cd else expression ( ?: and : )
3464a579c ternary (stable?) - still an issue in testTemp that needs GG to review (stack related?)
125d54371 WIP - ternary
a75db491c typo
3913d732b ternary ? :
410dda1ea Merge branch 'master' of https://bitbucket.org/xtclang/src
8fb7aaca7 .as()
d14b9fcc1 .is() expression labeled expression non-binding expression mis clean-up & testing
b6b99da3d WIP - postfix "?" operator (non-null short-circuit)
16872a176 Merge branch 'master' of https://bitbucket.org/xtclang/src
b00448991 pre/post ++/--
072533950 Merge branch 'master' of https://bitbucket.org/xtclang/src
d4a54e7f3 pre/post ++/-- (WIP)
eff145ada Removed old example
49f3f6751 Natural changes
8628d31ae Typo in overflow check
98683daa2 wip - unary ~/!
e8581e8b0 unary !/~
fc716e9db Fixed "hasSuper" implementation
a8bdc5aa4 Merge branch 'master' of https://bitbucket.org/xtclang/src
9b0f7a542 unary +/-
911a7f329 Natural code fixes
0a29099f8 Fixed an issue with unintented signature mutations
3726e23b1 Allowed various Enum values to be compared
6a4b7063d testing relational ops
313131960 tightening containsUnresolved() implementations
37f086d6c tightening containsUnresolved() implementations
808728e5a xenum fix
c94033d90 Merge branch 'master' of https://bitbucket.org/xtclang/src
bd07ccb27 dotdot operator
ab6c16443 Local stack implementation
9e3cbc411 minor edit
92eeaa0c8 Merge branch 'master' of https://bitbucket.org/xtclang/src
f9b0c4eb5 finishing /%
69919eb1f Refactored RET_* to A_*
9014ee941 Temporary "A_STACK" implementation
b8f369f26 Merge branch 'master' of https://bitbucket.org/xtclang/src
9cd4759dc expressions (WIP) for: << >> >>> & | ^ /%
1ea6eeaf6 Improved handle creation for enum constants
61b7578e3 testing
2f0cbce36 Fixed Int/UncheckedInt handle creation
b5a66ce6c Merge branch 'master' of https://bitbucket.org/xtclang/src
7eef1bd05 expressions (WIP) for: << >> >>> & | ^ /%
f8c1af83f Left to Rright type inference for vars, assignments and comparisons
0824e2b94 Merge branch 'master' of https://bitbucket.org/xtclang/src
85ac6f520 Trivial refactoring
2cae7f391 expressions for: == != < <= > >= <=>
9fbbd82d1 equals()
a133f159d Merge branch 'master' of https://bitbucket.org/xtclang/src
d799ee99c working on relational expressions
ecc7966d2 Fixed "function" signature; imporoved InvocationExpression and VariableDeclarationStatement
feead9181 First draft for conditional VariableDeclaraion
dedbb0d33 First draft for conditional VariableDeclaraion
da58937b7 Natural code corrections
500beebc3 Merge branch 'master' of https://bitbucket.org/xtclang/src
012f61677 filling out bnf operators section
654f4a164 Trivial
ff78991cb Inference in NewExpression; natural code fixes
264863e57 wip - collections framework
b96820c5a Avoid normalization during formal type resolution
38732c2d7 Resolve auto-narrowing using the target type
b83090c3f more toString() work on ops
a43985f9d Merge branch 'master' of https://bitbucket.org/xtclang/src
ae781d444 minor fixes & tests
57bf27c87 Merge branch 'master' of https://bitbucket.org/xtclang/src
6fff76acd wip - array [] - almost done (just have to add support for constants)
c843a3bf9 Renoved too limiting an assert
6f7bc4736 Renoved too limiting an assert
fbcdd3cd8 Right-to-left type inference
7c366159f wip - array access
ee7320531 Merge branch 'master' of MacPro:Development/git/xvm
8370c89b9 minor
5e056975f wip - array []
cfac082e1 Merge branch 'master' of https://bitbucket.org/xtclang/src
93d4e488f implementing array access
1c506ff4e Post merge
7bcd51f1c Merge branch 'master' of https://bitbucket.org/xtclang/src
2d5b6247c updating ThrowExpression
6843881e5 updating ListExpression, and adding more debugging help to ops
0982c30fa new conversion approach - putting in fixes to older implementation
22d1e269f minor fixes: return statement
d2f228e6f finished CondOpExpression (&& and ||)
bb5d00165 expression work: test is finally running (mostly)
a5116898d Merge branch 'master' of https://bitbucket.org/xtclang/src
4b4c260d9 expression work: test is finally running (mostly)
3af097c12 expression wip
a01dac4a3 expression work in progress
f7356f374 expression wip
a937ccbbe expression work in progress
fc3d56517 expression wip
b41a2b649 expression work in progress
01c3b93ee expression wip
41f9833e2 Natural code corrections
55cc4ee49 Removed a type check (too strong and too early)
60e5b7338 Natural code corrections
fff32491c expression work in progress
327b3bc06 Adjustments to native method processing
50b35af4c Merge branch 'master' of https://bitbucket.org/xtclang/src
0ac15c0b6 expression wip
5aa07aa83 Merge branch 'master' of MacPro:Development/git/xvm
1291372c6 expression work in progress
f5c42df71 from conversation with Victor
7453c557b expression work in progress
eca343a42 Minor fix of the position info
459ba6b1c trivial
8041d9e96 Changed the return register creation; console.readLine() test
7a5a86a0b expression work in progress
51c6c975c Merge branch 'master' of /Users/cameron/Development/git/xvm
4dd775ea1 expression work in progress
2e704ad38 Merge branch 'master' of https://bitbucket.org/xtclang/src
41b94ce48 fixes for stage manager
0309e0a78 fixes for stage manager
675903ab6 Made the use of getDefiningConstant() more rubust
4e004ab59 Compiler errors
0f11a56b7 Merge branch 'master' of https://bitbucket.org/xtclang/src
5364527d5 Merge branch 'master' of https://bitbucket.org/xtclang/src
4e32c8ddd Injected var is working now
705a26e5b Avoid recursive Tuple based type definition (for now)
ffaa5c28b Annotated expression assertion fix
17b8edd5c wip - expression validation choreography
25d828793 More natural fixes
1da53cafc Trivial natural fixes
cda2ca9f7 Trivial
0496cf949 Trivial natural fixes
6ff89e6b6 tiny update (gene caught this unnecessary loop)
fc7573447 fix for containsUnresolved and resolving typedefs
060b46547 temp fix for gene - containsUnresolved
6184eba35 Merge branch 'master' of https://bitbucket.org/xtclang/src
244a7b887 beginning work on expression type conversions
f632a0cc4 Separated children suport for MMS
c42ca2485 Register arguments fix
94986c5f0 Merge branch 'master' of https://bitbucket.org/xtclang/src
2f8a6ec49 additional typedef resolution in constant pool
c49ddcef2 Merge branch 'master' of https://bitbucket.org/xtclang/src
5d37270d3 fix for tuple packing
5e64f34f1 StageMgr work
68702f3ce Merge branch 'master' of https://bitbucket.org/xtclang/src
1cb2b6164 fix to stage mgr fast fwd
168a0bbf3 Merge branch 'master' of https://bitbucket.org/xtclang/src
dfbfdc1db fix in progress (?)
f5264ceba Merge branch 'master' of https://bitbucket.org/xtclang/src
6b7f5d9b3 Post merge
20e98a1eb toString on some ops
0d3560537 plugging in stage manager
5b00dc14b plugging in stage manager
81531a129 Merge branch 'master' of https://bitbucket.org/xtclang/src
4be840d42 Improved native rebase type info generation; fixed validation for ThrowExpression
b3f4659ba Renamed Referent.ActualType property to "actualType"
84a47a80a typo
03f2ba12b StageMgr work
251282721 creating stage manager
3acd9f469 var_dn work
d7e87e376 toString() fix
a2584aa59 Merge branch 'master' of https://bitbucket.org/xtclang/src
953a7b9e0 Fix in "finishAdoption"; adding typeRefRB() and typeVarRB() helpers
f90dae208 first pass support for new
7d36384b2 Post merge
6004e8f96 Merge branch 'master' of https://bitbucket.org/xtclang/src
0f624cf87 constructors, WIP
3a366a7cb added "default" composition (oops, should have tested better)
bc640b76d added "default" composition
61b0e092f Merge branch 'master' of https://bitbucket.org/xtclang/src
189ebd55b constructors, WIP
b98755900 Trivial
45cf4929a Improvements around "isIntoX" API
c04309617 Post merge
19ece8c09 Merge branch 'master' of https://bitbucket.org/xtclang/src
3e640f7be creating constructors
eccb56e8e Merge branch 'master' of MacPro:Development/git/xvm
2ac53e94c constructors, WIP
942762184 Handling of mixin's super() calls; this:target access; various natural fixes
c288cd82a Various natural fixes
3786e9739 InvocationException correction; various natural fixes
ae6bbaefe Merge branch 'master' of https://bitbucket.org/xtclang/src
b74eb2454 Merge branch 'master' of https://bitbucket.org/xtclang/src
9ed53e424 constructors, WIP
56c329ce9 Natural test fix
f31022e46 Improved name resolution
3ec77a1e6 Various fixes
8eb8698f0 constructors, WIP
42ead8701 Merge branch 'master' of https://bitbucket.org/xtclang/src
04899e996 starting constructor work
e8e266941 A number of fixes related to "isClassType"
dc7dcc3d7 Merge branch 'master' of https://bitbucket.org/xtclang/src
6a783ef2d Struct compilation fix
a8b830657 Merge branch 'master' of https://bitbucket.org/xtclang/src
dbf167c02 annotation support in DVAR
20ca7ea49 starting DVAR work
02a02900d List of bad deferred compiler bugs
3731f4682 Fixed double error reporting
08cef9073 annotation resolution (first pass)
4c37d8f07 Merge branch 'master' of https://bitbucket.org/xtclang/src
065e7e546 WIP - annotation resolution
45669bd6f Fix for redundant return types
413c27411 Natural code fixes
966de4891 TupleExpression fix
6e022f793 Added DEBUG statement
834ccce8a Natural test code fixes
22af3d0d2 Various fixes; using more natural methods in TestApp
fde6984ab WIP / annotation
be5dcd398 Merge branch 'master' of MacPro:Development/git/xvm
191278e45 WIP - annotation resolution
61d8698b9 void (push to GG)
359182247 Merge branch 'master' of https://bitbucket.org/xtclang/src
fa150b1b8 Merge branch 'master' of https://bitbucket.org/xtclang/src
4fe1344ca Trivial refactoring of reregisterConstants()
c90e87766 void (phase 2)
3fde57bee void
d45dd8c1a void
16c6d81c0 Added TypeConstant.isFormalType() helper
bd26e5e98 Trivial
c0c66c93e EnumHandle to inherit from GenericHandle
229dd4449 Merge branch 'master' of MacPro:Development/git/xvm
c406423ab Merge branch 'master' of https://bitbucket.org/xtclang/src
2a253199d Merge branch 'master' of MacPro:Development/git/xvm
62273f734 fixing "with", as discussed
23cf583f2 planning examples for console and web apps
83e729f64 Web example
68f6b2e69 Argument getRefType -> getType refactoring
47ce64d90 Property initializer fixes
2eb6c8713 minor fixes; working on "outer.this"
31a0273a1 Merge branch 'master' of https://bitbucket.org/xtclang/src
2ab2bc3c8 propName.this implementation (still some bugs)
629030889 Hello world!
33a07ea5d Trivial
2b4214f71 Merge branch 'master' of https://bitbucket.org/xtclang/src
5160de43f A couple of fixes
26cac0081 minor fixes; working on "outer.this"
5fb6615f1 minor fixes. added "super()" support for e.g. prop accessors
97677e00c minor fixes
28e4ccdc7 Another fix for ensureOptimizedMethodChain()
b846854fc Fix for ensureOptimizedMethodChain()
1a0e0f5c4 Post merge fix
6f6083f58 Merge branch 'master' of https://bitbucket.org/xtclang/src
9d849bc3a More fixes for the NameExpression
a8b2cd5c9 minor fixes ... ready for Hello World!
dba415376 added method invoke support to InvocationExpression
914cd1a27 changes including BNF changes ("var", "val", "void", "with" now reserved!) and InvocationExpression (in progress)
5a7b75552 fixing errors, and continuing on InvocationExpression
bca288b97 Merge branch 'master' of https://bitbucket.org/xtclang/src
1eee25b42 fixing errors, and continuing on InvocationExpression
c05808c28 Post merge
55cc041cc Merge branch 'master' of https://bitbucket.org/xtclang/src
06aa86397 More fixes for NameExpression and isA()
d37193a3d fixing errors, and continuing on InvocationExpression
d88c96e8b Merge branch 'master' of https://bitbucket.org/xtclang/src
cb9585c7c Fixes for NameExpression and NamedTypeExpression
64c699306 fixing errors, and continuing on InvocationExpression
6c5af12e1 Merge branch 'master' of https://bitbucket.org/xtclang/src
b6b8872a7 changes including BNF changes ("var", "val", "void", "with" now reserved!) and InvocationExpression (in progress)
aad74f54e changes including BNF changes ("var", "val", "void", "with" now reserved!) and InvocationExpression (in progress)
1c3c21e3f minor
c78eb833e minor
56411ad3a beginning invocation expression work
c231f6e7f wip name resolution
ffddfe972 minor fixes
dcb572cc8 Temporary - False isA ConditionalTuple check
974b88ee5 minor fixes
7fab59643 Merge branch 'master' of https://bitbucket.org/xtclang/src
c98653218 Trivial
862ddcae9 minor fixes
6fdc45120 Prematurely removed...
00db27a56 Merge branch 'master' of https://bitbucket.org/xtclang/src
004db57ba minor fixes
373f585aa Merge branch 'master' of https://bitbucket.org/xtclang/src
775aaf8e3 Added formal type resolution from contributions
00513de1d finished initial name expression resolution
7cea9301d wip name resolution
2c173ad38 wip name expression resolution
de4cbf015 trivial
f7c150d43 wip name resolution
8c9038454 wip name expression resolution
938de1b09 Merge branch 'master' of https://bitbucket.org/xtclang/src
9aa236768 Post merge
134d8e457 wip name expression resolution
047efe835 Merge branch 'master' of https://bitbucket.org/xtclang/src
89f2fe2e5 wip name expression resolution - pushing for gene to work on InvocationExpression
aa0a21c84 Merge branch 'master' of https://bitbucket.org/xtclang/src
c42bc6339 wip name resolution
395083309 wip name expression resolution
651da84e8 Trivial
11a936dd5 Fix the Ref.equals() implentation
7edf9ef53 Natural IO drafts
ca7b5fd19 wip - expression & name expression changes (still in progress). the name expression will have 2 paths, one pre-validation and one post-validation. in the pre-validation path, it must predict the outcome of the validation. the validation itself will split up multi-stage name evaluation using the dot name expression, so that class A.B.C will still be a single name expression, but property p2 on property p1 on register x will become a name expression followed by two dot name expressions.
1788ffe5d Used A_THIS instead of A_FRAME; simple refactoring
0b46c38d0 Merge branch 'master' of https://bitbucket.org/xtclang/src
6260a3533 wip - expression & name expression changes (still in progress). the name expression will have 2 paths, one pre-validation and one post-validation. in the pre-validation path, it must predict the outcome of the validation. the validation itself will split up multi-stage name evaluation using the dot name expression, so that class A.B.C will still be a single name expression, but property p2 on property p1 on register x will become a name expression followed by two dot name expressions.
c9bf55d89 Trivial refactoring
993f9ef74 Use "struct" type for field calculation
1c7bc3038 wip - bnf & parser changes. expression & name expression changes (still in progress). added @Conditional
731347a19 wip - bnf & parser changes. expression & name expression changes (still in progress).
5e16667be Corrected Element type declaration
d8d41317f Trivial
7a5716c1b wip - bnf & parser changes. expression & name expression changes (still in progress).
f2f24dc22 Use TypeInfo for "compare" and "equals"
e79c6964b Merge branch 'master' of /Users/cameron/Development/git/xvm
c5d33bb54 wip name resolution
7f38b5d24 Merge branch 'master' of https://bitbucket.org/xtclang/src
0d6d5b85f Typo
5c7c28334 Various fixes
b507e1157 For Cam
47a2751d7 Added resolveAutoNarrowing() to Signature
94b507803 Trivial
00fad93b2 Native Container API
fe521edbd First completely natural app (TestSimple.xqiz.it)
b8f7ca0dd Prep for multi-module support
7f6491fef Example
496a6d51d Cleanup
1e39a0abd Slightly optimized the object construction flow
36f35cf90 Merge branch 'master' of https://bitbucket.org/xtclang/src
f20b94d2f wip - bnf & parser changes. expression & name expression changes (still in progress).
31cb81517 wip - bnf & parser changes. expression & name expression changes (still in progress).
f38402ab8 Trivial refactoring
17ce9f714 Refactor CallChain to use the TypeInfo phase 5 - all tests pass
dff20c513 wip AST changes - updating BNF & parser
d3904c0eb wip - bnf & parser changes (in progress). expression & name expression changes (in progress).
50c49973e Refactor CallChain to use the TypeInfo phase 4 - before fixng isA() for AnnotationTypeConstant
f9598c56a wip - name resolution (e.g. multipart, props, etc.) in name expression
d93b9c45a Refactor CallChain to use the TypeInfo phase 3 - replacing the PropertyInfo
5e80c84ac wip - binary expressions
2cf3c8c20 wip - binary expressions
63fb9c22b wip AST changes - relational ops
e29c81372 wip - binary expressions
69ab353ab wip AST changes - relational ops
175110b5e wip - binary expressions
3723dee0c wip - binary expressions
c2cb38212 Merge branch 'master' of https://bitbucket.org/xtclang/src
60a2d12ac wip - NameExpression
9186d109d Refactor CallChain to use the TypeInfo phase 2 (before replacing the PropertyInfo)
90e41e412 wip AST changes - various statements & expressions
c341cd323 wip - updating statements & expressions for new validate signatures and expression validation orchestration
6bc2302a6 wip AST changes - If statement
01a7abb9d wip - LiteralExpression
2387e7bd7 Refactor CallChain to use the TypeInfo phase 1 (after review w/ Cam)
3d2da24b7 wip Expression changes - starting on literals
38b00fd25 wip - LiteralExpression
eec035c77 wip - LiteralExpression
4d1804c82 wip Expression changes - starting on literals
1ea3e7498 wip Expression changes - finished first pass as Expression API cleanup
e815b891e wip - Expression API work
b72deb581 wip Expression changes
19ef0aec1 wip Expression changes
532d5d960 wip
6300d3621 Merge branch 'master' of /Users/cameron/Development/git/xvm
b2bfcc9c5  Changes to be committed: 	deleted:    doc/archive/x-old.doc
6a6477ab9 Merge branch 'master' of /Users/cameron/Development/git/xvm
eed29260a more fixes on TypeInfo; added nested type param support
d80f1f882 wip
4289b9a5f wip
03a1cc0a5 Merge branch 'master' of https://bitbucket.org/xtclang/src
77a87e938 Merge branch 'master' of https://bitbucket.org/xtclang/src
ac3fef9d8 Merge branch 'master' of /Users/cameron/Development/git/xvm
7e39a3d12 wip
62734ff48 Merge branch 'master' of MacPro:Development/git/xvm
f2e9d41ca more fixes on TypeInfo; added nested type param support
937601cdd Post-review for unhandled exception handling
d3526e6a0 Post merge
cb71c39a1 Merge branch 'master' of https://bitbucket.org/xtclang/src
bb2763386 Moved TestCompiler to test module
39dcab286 Simple fixes
3f9790baf Reverted multi-module work
dbec3d3f4 fixes for PropertyBody
4f51adf50 more fixes on TypeInfo; added nested type param support
13b059e0a bug fixes (now 0 errors in my test)
01ccec5b3 dramatic improvements and working "property exploding", but still a few issues to track down
5cade5063 testing TypeInfo and "exploded" property / method call chains
2ce0f4eb7 testing TypeInfo and "exploded" property / method call chains
e6a7f8283 AsyncSection API
3774cde75 Added predefine sigantures to ConstantPool
5455c5d67 wip
da1312100 Merge branch 'master' of MacPro:Development/git/xvm
cf12f0953 wip
7dd9cc3a4 wip - expanding property call chains
51051422e Merge branch 'master' of https://bitbucket.org/xtclang/src
fc1be6c1d wip - about to expand property call chains
ada766e90 Cam fixed the typedef turtles resolution
250de820d Container API - prep work
c5ee5ed1f wip
1f59629c4 TypeInfo - more bug fixes and error checking around @Override
835188e37 TypeInfo - more bug fixes and error checking around @Override
b13656a89 Merge branch 'master' of https://bitbucket.org/xtclang/src
07aaa23a1 updates to TypeInfo for limitAccess() functionality
06a5a8144 Added TODO and immutable as keywords
33da3d961 Correction for annotations
c26636621 Merge branch 'master' of https://bitbucket.org/xtclang/src
57ca533a2 testing TypeInfo (struct types)
e8fe6c31f Merge branch 'master' of https://bitbucket.org/xtclang/src
f3fe4e158 testing TypeInfo and fixing bugs in PropertyInfo processing
7e4480ff9 Merge branch 'master' of https://bitbucket.org/xtclang/src
bc648dbd5 Introduced internal RefImpl and RefVar classes
abf53bfe6 wip
77a7a9125 testing TypeInfo and fixing bugs in PropertyInfo processing
ba06b5041 testing TypeInfo and fixing bugs in PropertyInfo processing
596edb6d3 wip
0670831f9 testing TypeInfo and fixing bugs
cc88c8d02 at a semi-stable stage. capping is now working. added helpers for debugging. still need to resolve a few dozen TODOs.
cefe2a5a2 working on combining layers of properties and determining fields.
c765f1b03 adding additional checks / error reporting on property
3e0669e10 working on combining layers of properties and determining fields.
e2489b7b1 added error messages
d01bd4f42 added normalize before building TypeInfo
223533800 WIP - tests and figuring out what "Var" vs "Var<RefType>" vs "Var<Object>" mean when building a TypeInfo"
a5805a3a5 Merge branch 'master' of https://bitbucket.org/xtclang/src
362ac3d97 TypeInfo: simple tests running, but still debugging
78d2c4aa9 Virtual get support for dynamic registers
22126378b working on tests
ebfb2f725 Merge branch 'master' of https://bitbucket.org/xtclang/src
cbd34157a finished method chaining work. minimal "able to compile" but tests don't run yet.
713d1a64a Virtual get/set for dynamic registers - prep work
d27759de1 changing order of member contribution to "bottom up" and introducing strict @Override requirement and implementing "redirect" and "cap" for explicit type narrowing (props and methods)
a532263f2 continuing work on 'bottom up' chain building
90e924c67 changing order of member contribution to "bottom up" and introducing strict @Override requirement and implementing "redirect" and "cap" for explicit type narrowing (props and methods)
1215cc27b introducing nested identity
8e8343ab7 Internalized RefHandle access
0938aeca0 Refactored the IndexSupport operations
ecb782346 Refactored the Var/Ref get/set operations
e6e45ef4d introducing nested identity
615ca9809 local identity work
e8e773e08 working on @Override / columns / capping
fda49ef5b Moved the "weak" assignment check to Frame.assigneValue()
c9cd4ce07 PropertyInfo work seems to be stable enough to push
2b41f1ba1 PropertyInfo work seems to be stable enough to push
8f573acb3 propertyinfo in progress
81fac4a8c working on PropertyBody
a17cfd8e6 propertyinfo in progress
0b6b56172 Merge branch 'master' of https://bitbucket.org/xtclang/src
73936a703 working on PropertyBody
4d6a11f9c Added IP_ op codes
f82a574ea Fixed a concurrency bug
41675d99f Added unhandled excepiton processing
c6299fe98 Merge branch 'master' of https://bitbucket.org/xtclang/src
2e447c970 putting PropertyInfo back together
3d6b21d6b putting PropertyInfo back together
78a20b02d Simple refactoring
93e4488b0 Re-worked PropInPlace ops; added VarSupport
2b3038252 working on property yanking
491257d6b Re-worked InPlace ops; added new ops
13c9730df New ops
e36a76da4 ArrayConstant conversion
55e060442 Completion of isA() for auto narrowing
6b6c20379 Unused imports
17f30bcf9 Merge branch 'master' of https://bitbucket.org/xtclang/src
17af7890e Post-merge corrections
618aeb082 Added "this" type support for native declarations
fad0b3ce0 simplified name resolution slightly
2bbf405c1 Merge branch 'master' of https://bitbucket.org/xtclang/src
16121bcf8 fixes for auto narrowing
8b3ce6224 Merging...
4a2fc7b7d Merge branch 'master' of https://bitbucket.org/xtclang/src
f6f6d0070 auto narrowing !!!
90c98410a isA() for auto narrowing - phase 2  - added PseudoConstant.isCongurent  - added API routing for pseudo-class types
9128e999b working on auto-narrowing
5b628f9ea working on auto-narrowing
411c09bf5 uncommented "infer" usage
18db225c2 Merge branch 'master' of https://bitbucket.org/xtclang/src
9f96e4e56 testing
99ae3d261 removed underlyingClasses() API
807a4f928 isA() for auto narrowing - phase 1  - added TypeConstant.inferAutoNarrowing  - restored TypeConstant.resolveAutoNarrowing  - added fAllowInterface parameter to is/getSingleUnderlyingClass API
1c28d434b testing
0fbb1639e TypeInfo - coming together
9f6c921a3 Merge branch 'master' of https://bitbucket.org/xtclang/src
adb8bf5b9 TypeInfo - coming together
b78371a0b trivial - typos
3b047dd96 Corrected some relational type logic
ac1c0b70d Simplified native code generation
6ff7bb5f6 Merge branch 'master' of https://bitbucket.org/xtclang/src
7b2d41e7c wip
de8d5db21 Generate the default constructor
5f7f185ff Trivial
c13744578 Stubbed compilation for unsupported functionality
d3d0ad84c Merge branch 'master' of https://bitbucket.org/xtclang/src
845944a34 Merge branch 'master' of https://bitbucket.org/xtclang/src
f261e78b2 trivial
a210dc397 Added support for standard @Op methods
6e1e83623 Singleton initialization - circular initialization check
de1d70352 Singleton initialization - phase 1
c218c20b3 wip
69248cc1d wip
7ba826cac back up to the "40 + 2" test ...
670f4f338 working through compiler tests (test.x)
75c71dd61 working my way back to a working prototype test - fixing some stuff on recursive compilation
4c0d19fb7 Merge branch 'master' of https://bitbucket.org/xtclang/src
754fced9c added AST Node validation phase, including "catching up" nodes that were behind
efff0a7cf wip - adding "replaceability" for AstNode
e2740b796 work in progress - flattening
d7638d195 Merge branch 'master' of MacPro:Development/git/xvm
1f35a4592 wip - changing compiler to add a "validate types / calculate constants" pass
0344a4f61 Merge branch 'master' of MacPro:Development/git/xvm
284204df9 adding constant (static) property support, lambda initialization support
666cd9fe4 Merge branch 'master' of MacPro:Development/git/xvm
1e4eb8242 adding constant (static) property support, lambda initialization support
0a2b8b0a0 Implemented PIP_DEC, PIP_INC; reverted parts of the OpSupport API
ab478a039 Merge branch 'master' of https://bitbucket.org/xtclang/src
c32a5a34f more work on property flatting
00784f522 Implemented IS_CONST, IS_IMMUT, IS_SVC op codes
4b658edfc Implemented JUMP_VAL op code
0ae47f7b8 Trivial
d33777d90 Merge branch 'master' of https://bitbucket.org/xtclang/src
9b4df7258 Implemented JUMP_TYPE, JUMP_NTYPE, JUMPp_INT ops
f19c71aaf added thread safety & "incomplete" handling to TypeInfo creation
30d77180d work in progress - flattening
dce76dccc Merge branch 'master' of https://bitbucket.org/xtclang/src
531f19b78 wip TypeConstant recursion
dbf296671 Fixed isA() for self-referencing types
145ffd1ad Merge branch 'master' of https://bitbucket.org/xtclang/src
de5669f58 minor fixes to TypeConstant
664d4b3d4 Post-merge review
00ea722e5 minor fixes to TypeConstant
c6e0085d8 property flattening
c31910ae9 work in progress - flattening
b3e9dbc5a Merge branch 'master' of https://bitbucket.org/xtclang/src
8cd612d28 wip
abca29408 Introduced AnnotionSupport, further reduced the OpSupport surface area
cdb3599a0 Merge branch 'master' of https://bitbucket.org/xtclang/src
8560fef5b wip
435ceaf23 Reduced the OpSupport surface area
4ff4be0ec Introduced UncheckedInt64 template
08cb2b3d7 wip
3dd43ede3 Another trivial
04b872fdc Trivial
691a8b3b9 wip
4ca3e1885 Introducing OpSupport to TypeConstant - phase 3
740aef206 wip
b9124a873 Added buildString() to the OpSupport
2ad9f4137 Introducing OpSupport to TypeConstant - phase 2
16031c424 Trivial refactoring
ee6f7c7c2 Merge branch 'master' of https://bitbucket.org/xtclang/src
0c81b1b64 TypeConstant fixes
09daa6f25 Merge branch 'master' of https://bitbucket.org/xtclang/src
277739d12 TypeConstant fixes
becc824f1 Fixed P_Get, L_Get type resolution
6f6776049 work in progress
d69c4f171 Further simplified native templates initialization
8b91a67f4 Trivial refactoring
1ad40cb0e Merge branch 'master' of https://bitbucket.org/xtclang/src
9174a8d9c work in progress
a0398888f Simplified native templates initialization
643f2fe53 Merge branch 'master' of https://bitbucket.org/xtclang/src
95ae7a5d7 Introducing OpSupport to TypeConstant - phase 1
e725aa79b Merge branch 'master' of https://bitbucket.org/xtclang/src
a9eba701f work in progress - flattening
22091266b work in progress
70a07f716 Post-merge changes
8c9ec0f7f Trivial
e74012c61 Merge branch 'master' of https://bitbucket.org/xtclang/src
499de45f0 Merge branch 'master' of https://bitbucket.org/xtclang/src
c2da7ea57 Changed P_VAR internal API; added P_REF op code
a3d627fa0 working through property flattening w.r.t. interface properties being "realized" on a class ...
75483b8ab type flattening project
a89138a81 work in progress - flattening
514a08fea work in progress - flattening
4f8ffc808 more flattening work and error reporting on properties
3819cbaee more flattening work and error reporting on properties
111487884 Added tests for P_Var op code
b7a8cc5ee Merge branch 'master' of https://bitbucket.org/xtclang/src
220184f53 out vs. err fix
3b5ab0635 Merge branch 'master' of https://bitbucket.org/xtclang/src
814c3a477 flattening project - working on creating PropertyInfo objects
ca5ee4a11 Refactored Ref.set() API
409843fa8 Added A_THIS special variable
162af1175 Merge branch 'master' of https://bitbucket.org/xtclang/src
ea9f33742 Fixed VarInfo resolution and added a test for an invocation against "this"
40e335eb2 flattening project - working on creating PropertyInfo objects
009ad2651 Trivial
02dec587a flattening project - working on creating PropertyInfo objects
5d2a46edf Merge branch 'master' of https://bitbucket.org/xtclang/src
48a58e356 flattening project - working on creating PropertyInfo objects
4ec7fea42 trivial
77b69482f Merge branch 'master' of https://bitbucket.org/xtclang/src
da359373f Changed the Ref.get() API
f075fdd1c flattening project - working on creating PropertyInfo objects
721fdccb5 flattening project - working on creating PropertyInfo objects
60900921e working on property registration
df766ff54 flattening project - working on creating PropertyInfo objects
73d7bf55e Trivial
6309dc42c Simplified checkReturnRegister API
ebdc244f0 Simplified checkReturnRegister API
39369f5df Merge branch 'master' of https://bitbucket.org/xtclang/src
e7e864fec SImple refactoring
2f7b68b6f merge
ab9261783 pushing work in progress on TypeInfo
1e9a761d5 Code.usesSuper() helper
4832a23f3 Prep work for the P_Var implemebntation and some refactoring
b4d7d94a9 pushing work in progress on TypeInfo
24068a3f1 pushing work in progress on TypeInfo
4cc58d7fd work in progress - flattening
7a0d7c191 Merge branch 'master' of https://bitbucket.org/xtclang/src
144c79eef pushing work in progress on TypeInfo
03ce96583 Restructured access to ObjectHandle's class
0a267673d More refactoring...
5a8b90e6a Refactoring...
3fc738fcc work in progress - flattening
c20e790c1 pushing work in progress on TypeInfo
d998b6445 Merged and compensated
1d90e225b Merge ...
cb8e660af pushing work in progress on TypeInfo
35471fb8c Change to the ObjectHandle
5a4012669 Merge branch 'master' of https://bitbucket.org/xtclang/src
412d86eb6 work in progress - flattening
7271045a3 renamed TypeSet to TemplateRegistry
ea4248271 Merge branch 'master' of https://bitbucket.org/xtclang/src
f424ba942 work in progress - flattening
91f1710fe Merge branch 'master' of https://bitbucket.org/xtclang/src
f1822465e work in progress: flattening
a53104c12 trivial refactoring
7ca682c1f Moved GenericTypeResolver out
15deea0b3 TypeComposition->TypeConstant switch in injection
66662f175 Introduced TypeConstant.getActualParamType()
038df47ce work in progress: flattening
d7db6e1e8 Correction of the Frame.getLocalType()
801bd8636 Switched to using TypeConstant for equals() and compare()
b3e0fecba Trivial
77577f3e1 Added I_Var; trivial refactoring
9abd3b0ae Renamed SoftRef to SoftVar
e3d11a2b8 Merge branch 'master' of https://bitbucket.org/xtclang/src
f6fe1de4b work in progress: flattening
efe3cbdce Tuple assignment test
b2c2ca63c Fix for the Tuple assignment check
a31620d01 Merge branch 'master' of https://bitbucket.org/xtclang/src
44b68aa5c work in progress: flattening
d73883f83 Allowed type declarations providing a subset of formal types (take 2)
e93c31242 work in progress: flattening
b27bc23d3 work in progress - flattening
60baa150b Merge branch 'master' of https://bitbucket.org/xtclang/src
17d2ad1b5 work in progress - flattening
8175fc7d0 Allowed type declarations providing a subset of formal types
282d9da85 Added canonical type resolution
be79a5cb3 Trivial
1ab1e8a32 Merge branch 'master' of https://bitbucket.org/xtclang/src
5ec294c0f work in progress - flattening
a231a446f Relational type "isA" support
a7b15fb96 work in progress: flattening
087dbd4a2 Fixed non-parameterized generic classes
403c868df Merge
9bba0925b work in progress: flattening
e68e82e56 Relational type "isA" support; check point 2
92ab6d45b trivial refactoring
03aa9efda work in progress - flattening
3aac44a78 work in progress: flattening
57fdaf781 trivial; extra tests
cd309d630 Merge branch 'master' of https://bitbucket.org/xtclang/src
d5bb6ae23 refactoring ContributionChain
89f67cf29 Merge branch 'master' of https://bitbucket.org/xtclang/src
9d89a6c0a Replacing Ref with Var and CRef with Ref
f75c626d8 interface can't incorporate
4177a0a02 Merge branch 'master' of https://bitbucket.org/xtclang/src
4d894fe29 Type -> TypeConstant transition check point 3
5c645bbb4 getting rid of Trait
92637b72b ref vs. var
4fb57b113 example for mixin / super
a07149c57 Trivial
73344a1e5 Type -> TypeConstant transition
b39c0a4c4 Type -> TypeConstant transition check point 2
990aee8ba Type -> TypeConstant transition (first round)
b1ac7d6d3 improved TypeConstant wiring fix
e2e5d8af2 improved TypeConstant wiring
8591bbda2 Changed the GenericTypeResolver API
8c971e7fe Incorporated the TypeConstant API changes
e34e1e1e4 - recursive type flattening / resolution - working on error reporting for verifier stage
97f28da85 Merge branch 'master' of https://bitbucket.org/xtclang/src
b97abb6ba - recursive type flattening / resolution - working on error reporting for verifier stage
711d0cb15 Adding test for complex production/consumption
7f3d09cba Round 7 for TypeConstant.isA() implementation - relational types
a35571335 - recursive type flattening / resolution - working on error reporting for verifier stage
b54133bad - recursive type flattening / resolution - working on error reporting for verifier stage
9f3642c7b Check point 2 for TypeConstant.isA() implementation for relational types
9963b5163 Check point 1 for TypeConstant.isA() implementation for relational types
9b53632b2 flattening project also got rid of duplicate ErrorListener interface / ErrorList impl
62a775d0a - working on error reporting for verifier stage
530a112dd Round 6 for TypeConstant.isA() implementation - duck typing
e7a0463e6 - removing @author tags - working on error reporting for verifier stage
7238f20b0 big merge
fe20c5f84 big merge
c95fdda7f flattening type info for TypeConstant
dff45bfd8 Round 5 for TypeConstant.isA() implementation
88930118d flattening type info for TypeConstant
01d662978 Merge branch 'master' of https://bitbucket.org/xtclang/src
57decdf03 Check point 5 for TypeConstant.isA() implementation
c74fd95ff Merge branch 'master' of https://bitbucket.org/xtclang/src
cc9a31e89 Merge branch 'master' of https://bitbucket.org/xtclang/src
729dce315 Round 4 for TypeConstant.isA() implementation
e1c5d2bed Check point 4 for TypeConstant.isA() implementation
b7fdc783e Merge branch 'master' of https://bitbucket.org/xtclang/src
c13e53370 flattening project
d45548cea Merge branch 'master' of https://bitbucket.org/xtclang/src
5f26ed932 Merge branch 'master' of https://bitbucket.org/xtclang/src
7db6c3be8 Trivial correction
2a453fcaf Round 3 for TypeConstant.isA() implementation
a949646a0 compilation work (in progress) -type constant work - designing helpers for "flattening" a type into type param, property, and method info etc.
50c58320f Merge branch 'master' of https://bitbucket.org/xtclang/src
e8c6e3af5 Merge branch 'master' of https://bitbucket.org/xtclang/src
11273b54f Merge branch 'master' of https://bitbucket.org/xtclang/src
2b8b59baf compilation work (in progress) - in progress work on enumerating methods ("flattening")
188e94f5d Second round for TypeConstant.isA() implementation
9942692b1 compilation work (in progress) -adding type inference to expressions
a9c8a6a93 Merge branch 'master' of https://bitbucket.org/xtclang/src
f4e720aa5 First round for TypeConstant.isA() implementation
8dd9176e1 compilation work (in progress) - redoing expression validate() to handle incoming type info - starting type constant work to collect ops & @auto methods
6bf20c882 Merge branch 'master' of MacPro:Development/git/xvm
9f34c0792 compilation work (in progress) -adding type inference to expressions
5b830d25b Fixes for GT/LT
cc832d518 Merge branch 'master' of https://bitbucket.org/xtclang/src
05f156230 compilation work (in progress) - minor fix to Prefix Op - new test of while() to fix
1d14f3f12 Fixing XTC code to compile
4abe61c3f Introduced a common base for relational types
b17c3f791 compilation work (in progress) -toString improvements
fe489b68d Merge branch 'master' of https://bitbucket.org/xtclang/src
f5b9fdd67 compilation work (in progress) -line # improvement
06e61d743 Merge branch 'master' of https://bitbucket.org/xtclang/src
26f474871 Additional GP_ ops
b962cdf1c compilation work (in progress) - singleton constant value resolution (e.g. "false" -> SingletonConstant(Boolean.False) - implemented enough of isA() to do some testing
1b20053e6 compilation work (in progress) - singleton constant value resolution (e.g. "false" -> SingletonConstant(Boolean.False) - implemented enough of isA() to do some testing
98735374b Integration and assignment compilation
edd0a4ec2 compilation work (in progress) - resolving true & false (in progress - needs SingletonConstant) - changing getType on the various identity constants, so that Property.getType returns Property.x type, etc.
d86c44c1c compilation work (in progress) -line # improvement
85928e40e compilation work (in progress) - hello * 5
ea375f08a compilation work (in progress) - first pass at fixing "this" problem
d07508935 Merge branch 'master' of https://bitbucket.org/xtclang/src
4f735c078 compilation work (in progress) - minor - prepping to figure out "this" problem
ef50f5221 Fixing XTC code to compile
4343e748e Fixed the constant pool caching
afd9d0102 compilation work (in progress) - added global name resolution
f6eba094a compilation work (in progress) - variable as LVal
dd5339285 compilation work (in progress) - context re-write - name expression impl to support variable "i"
01c70bf2f compilation work (in progress) - WIP
974007d10 compilation work (in progress) - added ability to provide register to the various Var ops
83e6f566e compilation work (in progress) - replaced "==" on type with "isComparable"
1c1ce466d Compiling var declarations
739de542c compilation work (in progress) - replaced "==" on type with "isComparable"
f10d82136 compilation work (in progress) - modified "ensureImmutable" behavior
1c1451a2b Merge branch 'master' of https://bitbucket.org/xtclang/src
9fe4d9929 compilation work (in progress) - modified "ensureImmutable" behavior
439f73126 Compiling "hello " + "world"
90656f8bb Compiling "return 40 + 2"
eeb510a0a Merge branch 'master' of https://bitbucket.org/xtclang/src
0e7cc72e0 compilation work (in progress) - added constant type awareness to TypeConstant(s) - finished the skeleton of BiExpression validate
184b19cbc Better error logging
988195273 compilation work (in progress) - fixes to CharConstant
fd853d0c2 Merge branch 'master' of https://bitbucket.org/xtclang/src
346f6328e Merge
d3dfd533a compilation work (in progress) - added String and Char * operator (for dup) - added Char .. operator (for range) - added BiExpr support for interval and range
f698c8ac8 Merge branch 'master' of https://bitbucket.org/xtclang/src
9054f7195 Fixed the constant registration/code assembly sequence
ba888e4a7 compilation work (in progress) - continuing to refine constant evaluation for binary expressions - added IntervalConstant for x..y expressions - reworked Ecstasy collections a bit so that Array is a List: --> String[] as a type declaration is now simply shorthand for List<String> --> Set adds & | ^ operators for intersection, union, symmetric diff
ddea78edf compilation work (in progress) - continuing to refine constant evaluation for binary expressions
dc932c3b4 Temporary change
fbc3f94a3 Added the property "short hand" method resolution
1c70a547c Merge branch 'master' of https://bitbucket.org/xtclang/src
9f74ca6cb compilation work (in progress)
65e62e609 Fixed syntax errors in XTC classes
01f730d8a compilation work (in progress)
0cfffed53 Merge branch 'master' of https://bitbucket.org/xtclang/src
da544adc1 compilation work (in progress)
ec0053142 Changed VAR_S to be consistent with VAR_T op
fc528feb2 Const array initialization and assignment
5d2ec9382 compilation work (in progress)
1744eea3d Merge branch 'master' of https://bitbucket.org/xtclang/src
8189af4d5 Added "next register" resolution to CALL_ ops
0d401a527 added getActualTypes() for functions
da1ef8e4c trivial
8ea9d1ea1 Merge branch 'master' of https://bitbucket.org/xtclang/src
9dcf2dae6 compilation work (in progress)
ab844b130 Merge branch 'master' of https://bitbucket.org/xtclang/src
6a4d0541b temporary fix to the method compilation
b144baa43 compilation work (in progress)
c45825a31 Added "next register" resolution to INVOKE_ ops
ffeb014c2 Merge branch 'master' of https://bitbucket.org/xtclang/src
9d50ccd9f compilation work (in progress)
550df710a Merge branch 'master' of https://bitbucket.org/xtclang/src
ac5e775c4 compilation work (in progress)
a44bf4a20 compilation work (in progress)
308d28d60 Merge branch 'master' of https://bitbucket.org/xtclang/src
b2561dad7 compilation work (in progress)
3c91aa7d3 Introduced VarInfo.TypeResolver
4ea4c7f68 compilation work (in progress)
12a17734f trivial refactoring
b4b20e054 Merge branch 'master' of https://bitbucket.org/xtclang/src
2a169e736 compilation work (in progress)
13b845dda Added "next register" resolution to NEW_ ops
3d62fdf7a compilation work (in progress)
8e7b2fc7c compilation work (in progress)
dbf3e7486 Added "next register" resolution
434a23977 compilation work (in progress)
eb68c3d7f compilation work (in progress)
740baf442 Prep for const array initialization
ba09c9496 compilation work (in progress)
2574dcbd7 compilation work (in progress)
24ca97e60 completely switched to the "relative" const ids for all op-codes
548777a0f Access related tweaks
a913fa0e6 Integ of ConstantPool changes
733e5e8e6 compilation work (in progress)
5f908fc45 Merge branch 'master' of https://bitbucket.org/xtclang/src
e27a6177c compilation work (in progress)
a0407f181 Merge branch 'master' of https://bitbucket.org/xtclang/src
d3f0a7863 compilation work (in progress)
0e5a7e9d1 trivial
0e2d402f7 Changed the fix for I_REF
564fabffa Changed the TestDriver to accept any class (asArg[0])
2fc28e197 Modified tests to use "next register" feature
179fa87d1 Allow "next register" for IS_ op-codes; fixed I_REF
5754f9d51 Implemented local property return for async invocation
f038db4db Merge branch 'master' of https://bitbucket.org/xtclang/src
0be4c307a compilation work (in progress)
a543bda18 compilation work (in progress)
ec315546c Added missing Construct_ ops
7f614b496 Trivial
aa5a1df01 Simplified Pre/Post inc processing
9c299f779 Accelerate the GC of a callee frame in the case of long continuations
b731f2ba9 Trivial corrections
4eb89658f Refactored GUARD op
55410d46a compilation work (in progress)
260be0fc7 compilation work (in progress)
85e47d8d3 Merge branch 'master' of https://bitbucket.org/xtclang/src
4620a7416 Allow local property return for Call_* , Invoke_*, *Bind
f63dc818e Merge branch 'master' of https://bitbucket.org/xtclang/src
0d6ba9446 compilation work (in progress)
addef3bf5 Added common base for jump related ops
b98fd9d1a Allowed local property for I_* and IIP_*
3f5777163 Merge branch 'master' of MacPro:Development/git/xvm
85041643c Added common base for PIP_ ops
f0b3a5ae5 Switched to using Frame.getConstant() for properties
8e378ae0d Allowed local property for IP_*
81ab207b7 Improved Frame.introduceVarCopy()
739a0b74c Merge branch 'master' of https://bitbucket.org/xtclang/src
ed15f01ce type work (in progress)
2413c8258 Unary op
a209f026b Allowed local property for GP_*
f8c0bedff Added common base for MOV, REF and CAST
0bfb391c9 Trivial
98910f118 Merged LINE_* and NOP op-codes into Nop
f2c94d3c4 Refactored Jump_ ops
ed1b3d355 Refactored unary IS_ ops
8821a339d Refactored binary IS_ ops
25c2a2390 Moved OpCondJump up
dcb120c5e Refactored Asserts
c472e866c working on type system
ecc63501d type work (in progress)
d92948666 working on type system
5e0ba773f Merge branch 'master' of https://bitbucket.org/xtclang/src
9c51e754b type work (in progress)
ddc283094 Trivial
946a1b34b Refactoring of OpProperty based ops
b40ab78a4 Trivial refactoring of Var*
b4c68c9f8 Trivial refactoring of Call*
6678e89ed Trivial refactoring of Invoke*
60b60ea0a Op-code refactoring continued - JUMP* ops
4f6051e24 Merge branch 'master' of https://bitbucket.org/xtclang/src
976d50b7f type work (in progress)
40dd3e1a9 Allow local property for Call_* , Invoke_* and assignValue
557c06720 type work (in progress)
b1c172c02 Merge branch 'master' of https://bitbucket.org/xtclang/src
ee3276985 from code review
7ed2f16c3 Op-code refactoring continued
ca9a2d9dd type work (in progress)
e922a3a7b Merge branch 'master' of https://bitbucket.org/xtclang/src
b38d8e0a7 Op-code refactoring continued
01a3c1906 working on type system
d5f122d68 type work (in progress)
7ad4a6441 trivial
7a9b885a0 Merge branch 'master' of https://bitbucket.org/xtclang/src
6d593395f allow local property for Call_*
4ed2000ae code gen work add decl class to ThisClassConstant
3449238f3 compilation
fda19a52d Merge branch 'master' of https://bitbucket.org/xtclang/src
fe443d8bc compilation
aa2aaf937 Merge branch 'master' of MacPro:Development/git/xvm
006fc7bee code gen work
02ab8c508 Simple refactoring
72ebc28e6 Merge branch 'master' of https://bitbucket.org/xtclang/src
8eb64bc7e All Invoke_ and GP_ ops allow local properties
1ef1d59c8 doc
0d507ace1 code gen work
b7f7e66d3 compiling expressions
e8c99a4e0 code gen work
9d5b463cb Merge branch 'master' of https://bitbucket.org/xtclang/src
1046ac6c2 Op-code refactoring continued
6b5ec1264 Op-code refactoring continued
d6e8c3ea3 temp
e8d5a705e Merge branch 'master' of https://bitbucket.org/xtclang/src
df1551db5 Var refactoring
50f275769 compiling expressions
86622c056 fixing params/returns ordering (used to be returns/params)
b9c2faca1 literal value code-gen
75905910d working on code gen
18e2491d0 Merge branch 'master' of https://bitbucket.org/xtclang/src
a01b96832 Op-code refactoring; phase 1
ff6e46961 working on assembler
32920f3c0 working on code gen
4c2e7e5a2 Merge branch 'master' of https://bitbucket.org/xtclang/src
7cb486a81 prep for Type work
a027565fa minor correction
65479208c updating ops design & doc
a3b55d975 working on assembler
21735e67a compilation work - getting close to compiling inside of methods
412fae338 Merge branch 'master' of https://bitbucket.org/xtclang/src
424292ea6 compilation work - getting close to compiling inside of methods
f7b6e3e29 Merge branch 'master' of https://bitbucket.org/xtclang/src
806451b8d Added resolved formal parameters from contributions
bbc5a2046 working on assembler
723b931dc compilation work - getting close to compiling inside of methods
18d0ef7bf getting rid of Automagic
750151bb2 getting rid of Automagic
2bc7c4e7f working on assembler
489d58efc compiler/assembler
ada766d98 compiler/assembler
a762519ef compiler/assembler
df1c47ced working on assembler
381ca20ae merge
db0af87c7 merge
32bc2bb34 working on ops
ff237730f Merge branch 'master' of https://bitbucket.org/xtclang/src
4acb0c75a Prep for "isA" implementation
60aaf41ae working on assembler
d4728a95c working on assembler
807b0906d working on ops
9288bb2ec Merge branch 'master' of https://bitbucket.org/xtclang/src
2919bf5e1 working on ops
ac1cf3761 docs
e86cc1687 Merge branch 'master' of https://bitbucket.org/xtclang/src
d5be50460 docs
e04bb2df1 working on ops
295257fe1 trivial
f7e347405 trivial
9ac3ec17e Merge branch 'master' of https://bitbucket.org/xtclang/src
b4a9cdc1e merge
8995d57f2 	deleted:    prj/xvm.iml 	deleted:    prj/xvm.ipr 	deleted:    prj/xvm.iws
928567e78 updating ops removing IDEA files from GIT
99a60a0de added project files to ignore
8c476407f post merge
7937ebfc9 post merge
634aec68d updating ops
659403a4e working on ops
a8ec3d250 Merge branch 'master' of MacPro:Development/git/xvm
74f425e6f Merge branch 'master' of https://bitbucket.org/xtclang/src
02b35d507 updating ops
213de7c41 trivial
ba63e39cb Merge branch 'master' of https://bitbucket.org/xtclang/src
b6b0de5e8 updating ops
fb984718b post-move fixes
51c31a0dd working on ops
00c336405 moving "proto" to "runtime" fixing imports
b82eb048d moving MethodInfo into MethodStructure
aa596a0fa Merge branch 'master' of https://bitbucket.org/xtclang/src
be948b7e9 moving MethodInfo into MethodStructure
03532a933 improved type resolution
8846c1be3 fix
f11f81db6 Integration with changes related to "construct" and "finally"
ea8bea73a fix
1e549b66b fix
4a3ed38fc constructors are supposed to be named "construct"
5e66ed87c adding singleton-service and singleton-const constant types (in lieu of the enum value constant)
6b7b3af83 Merge branch 'master' of https://bitbucket.org/xtclang/src
547fa68a8 adding singleton-service and singleton-const constant types (in lieu of the enum value constant)
6acf79f38 Annotations work
35029f058 merge
43bfdc7da eliminating Void return type
2c7dcd03b Merge branch 'master' of https://bitbucket.org/xtclang/src
53cbf1583 prep for type comparison - TypeConstant.isA()
4810b238a eliminating Void return type
a95d20d41 return type "Void" has changed to "Tuple"
b8a2866ee constant simplify() and register() fix
5714ce114 Merge branch 'master' of https://bitbucket.org/xtclang/src
725b71ecb simplify bug (in progress)
47cdaed75 trivial
470a1e18c Fixed and optimized the "optimize" algorithm
fb6225bb4 Merge branch 'master' of https://bitbucket.org/xtclang/src
d80450214 simplify bug (in progress)
c50de89fb Merge branch 'master' of https://bitbucket.org/xtclang/src
3bd892246 typedef work
ea8ced436 Merge branch 'master' of https://bitbucket.org/xtclang/src
01fcce2fb Merge branch 'master' of https://bitbucket.org/xtclang/src
ec981c5a5 typedef work
c8099ec8b Moved an additional helper to MethodStructure
50ca6f3ba Moved some helpers to MethodStructure
13e9b67a9 Switched to using SignatureConstant instead of MethodConstant for invocations
4a93e289b typedef work
d4d29f52c Minor corrections - before switching to MethodSignature support
e81ec5bcc changing sig hash
b51d37f70 Merge branch 'master' of MacPro:Development/git/xvm
a0ebe4ba5 - trying to improve debug output for method constants
35c8fb344 Merge branch 'master' of https://bitbucket.org/xtclang/src
210328eff Merge branch 'master' of https://bitbucket.org/xtclang/src
d7c46fea2 Merge branch 'master' of https://bitbucket.org/xtclang/src
2f1359657 - fixes to infinite loops due to register constant pointing to method constant pointing (indirectly) to register constant. - fixes to constant pool accidentally registering constants that point to constants that eventually point to unresolved constants
75b419aa4 Merge branch 'master' of https://bitbucket.org/xtclang/src
86a68d046 Further integration of the new TypeConstant design
48127f8e8 adding incorporates conditional
82e254a8a Merge branch 'master' of https://bitbucket.org/xtclang/src
18e42800b update to bnf & parser
9a26c5911 Added EnumConst helper
e11727258 Merge branch 'master' of https://bitbucket.org/xtclang/src
bf0910ee9 trivial
b9dcb87d2 update to bnf & parser
b056865ae Further merge improvements
61d2e3a3d After constant project merge
c092d4376 merge constants project into master
f63804723 Merge branch 'master' of https://bitbucket.org/xtclang/src
4d7ac3bd5 trivial
c2f49ba3d Merge branch 'master' of https://bitbucket.org/xtclang/src
5a433fc0d work on constants
c3c981a9e work on constants
ab7453ccd work on constants
8c9c1d229 work on constants
74c3227f4 Merge branch 'cp' of /Users/cameron/Development/git/xvm into cp
30bfbf56d work on constants
d09372d66 constant re-work
e285edb05 work on constants
7144a17c6 work on constants
a117c7387 work on constants
049ac44be Additional Ref props/methods
e5b3ebd8a Added Ref properties; simplified exception raising API
75c33055b work on constants
a8855e09c AtomicRef methods
ba4be16f1 Reworked equals/compare use in op-codes
e36fadded work on constants
5f4bed3ca Reworked Pre/PostInc; added Inc op code
81ba432ac work on constants
8449a8c4f work on constants
dc3a579e3 Added some native Ref and FutureRef methods (w/o tests)
9126c7433 Another Mixin test
948479d7e work on constants
ca928157a Added Mixin test
8f7fb677b constant re-work
65e360728 Refactored PreInc/PostInc op-codes
20177af5b Refactored PGet/PSet op-codes
b91c490a6 Refactored invoke* op-codes
58ddb35ac added call chain resolution support
cbce4ac6e renamed Ref
be685960b after refactoring of categories templates
e6bf38160 work on constants
f81e566ae before refactoring of categories templates
4940f7fcb work on constants
a5942acca constant re-work
49513a105 prep for the mix-in processing
a32a61139 work on constants
b2532f99a implementing the remainder of the value constants
dcd1cf888 Merge branch 'master' of https://bitbucket.org/xtclang/src
dbd9b99d5 Enum work
f926ffb28 implementing the remainder of the value constants
2f1648508 Merge branch 'master' of https://bitbucket.org/xtclang/src
ac2326258 decimal constant support
7a410b054 Introduce native get/set
31a849da1 Merge branch 'master' of https://bitbucket.org/xtclang/src
0236f28eb 128-bit decimal support
8a3dd0a03 in progress on 128 bit decimal
319a064e0 decimal support (finished 32 & 64)
0724eee4d missing error
79f6002f8 Merge branch 'master' of https://bitbucket.org/xtclang/src
011ede596 decimal support
4aa4811e7 Merge branch 'master' of https://bitbucket.org/xtclang/src
c7a44a4d9 simplifications
831b4a000 Merge branch 'master' of https://bitbucket.org/xtclang/src
ccb46a173 decimal support
540f3f57c Merge branch 'master' of https://bitbucket.org/xtclang/src
95fd7f263 completed the "continuation" refactoring
2b6677613 decimal support
c8c3d74f0 value constants
5f259c055 new ops
47c29d3d5 trivial
c9981e36d Merge branch 'master' of https://bitbucket.org/xtclang/src
997aea3be Merge branch 'master' of https://bitbucket.org/xtclang/src
891454166 new ops
e374534e3 Corrected hash.get() implementation
471b58faa trivial
2dedc069d Re-implemented to<String>
d42bb5aff Merge branch 'master' of https://bitbucket.org/xtclang/src
883f1a2ea redid resolution to support type params
dfe7547bb reorg of constant
7413e08ba redid resolution to support type params
ce5d14dfb Continuation recursion
fb9dea030 hash generation
dd4575b84 Merge branch 'master' of https://bitbucket.org/xtclang/src
c87f910b4 trivial
dd8cc72b7 redid resolution to support type params
873574664 Merge branch 'master' of https://bitbucket.org/xtclang/src
9ef7bc8d8 Further hardening of type matching logic
9b83f97bf Merge branch 'master' of https://bitbucket.org/xtclang/src
2d13fe3e3 tests
d6ec9693f Merge remote-tracking branch 'origin/master'
11710c37c new ops
949a0b85b cleanup
7b7d9caac Added NullableClassType helper
fef7cdef2 stricter type declarations
3f04aadc3 after reset 2
f72827484 after reset
6e8272fef minor fixes
d3942592c changes need review by GG
fef2108f1 Merge branch 'master' of https://bitbucket.org/xtclang/src
8e1fcdfeb type params
50982183a type params
32313579c Merge branch 'master' of https://bitbucket.org/xtclang/src
7741238c3 new ops
ded20be16 Merge branch 'master' of https://bitbucket.org/xtclang/src
5cc7f5a29 type params
7df8e3457 Implemented Mark's suggestions
ffbe1de76 Moved native templates to matching packages
2b6fc0f97 Added a "category super" support
7fa7bfac7 constants work
e7be14968 type params
a0ae13428 working on methods
2f44884a3 fixes for gene
08ed44ede fixes for gene
2c2d827ba fixes for gene
b6ee13747 fixes for gene
af3a6660b fixes for gene
66be1c066 reproducing issues from gene
fa2c668f5 More syntax fixes
d11d5dcb5 Int128
8f066d6e8 Fixes in X code
d9902a419 Merge branch 'master' of https://bitbucket.org/xtclang/src
bd5d05560 Various new types
85144ae40 stubbing out built-in const types
35cb501f3 Merge branch 'master' of https://bitbucket.org/xtclang/src
1e4124f37 adding more implicits
24c349cd3 Merge branch 'master' of https://bitbucket.org/xtclang/src
5f5a3c4ce resolving annotated, array & sequence types
ea4f7d36d Merge branch 'master' of https://bitbucket.org/xtclang/src
1908ad8bf Const support for equality and comparison
4e25d87a5 resolving names across module boundaries, etc.
20ab18228 fixed "unresolved type" for property
99cd4858f cleaning up comments and imports
4a91bf991 cleaning up comments and imports
1d50f3e7d ConstantPool - supporting adoption of a clone of a Constant from another pool
5cc513f0a adding typdef structure
7bb0fda41 adding typdef structure
025e83d4e  Changes to be committed: 	renamed:    src/org/xvm/asm/constants/TypeDefConstant.java -> src/org/xvm/asm/constants/TypedefConstant.java
9049a7260  Changes to be committed: 	modified:   src/org/xvm/asm/Component.java 	renamed:    src/org/xvm/asm/TypeDefStructure.java -> src/org/xvm/asm/TypedefStructure.java 	modified:   src/org/xvm/compiler/Parser.java 	modified:   src/org/xvm/compiler/ast/TypedefStatement.java
7e631ce6a resolving some nagging BNF issues
56bd262f7 Couple of NPEs
278ccdf18 Fix to "canResolveSimpleName"
bc1ad62af Merge branch 'master' of https://bitbucket.org/xtclang/src
1ee3495dc resolve names - fixes
0b8b23e5c resolve names - fixes
6f6a6c50b Merge branch 'master' of https://bitbucket.org/xtclang/src
6c8fe023c quick fix
686ce8f29 Merge branch 'master' of https://bitbucket.org/xtclang/src
f6e9664b2 quick fix
22ebe3f1c Merge branch 'master' of https://bitbucket.org/xtclang/src
687dcc2fc Prep for Console plug in
f0ed4d284 resolve names
a74f5860f resolve names
862e1e07b Merge branch 'master' of https://bitbucket.org/xtclang/src into cp
f5d16e52f Trivial helpers
e547384fa Merge branch 'master' of https://bitbucket.org/xtclang/src into cp
a50483cac updating compiler to handle name resolution
c684755b9 updating compiler to handle name resolution
4d8483a83 resolve names
291233e99 Support for native super() methods
cba0ebb6b resolve names
567e086e5 X_Print to use to<String>() implementation
a2913470b updating compiler to handle name resolution
ee45d1239 resolve names
953681383 Typo
54dae7076 Ordered support
0ccf15e9f new ops
81f9bc61a Merge branch 'master' of https://bitbucket.org/xtclang/src
d87d798df Trivial refactoring
c70b0423b Merge branch 'master' of https://bitbucket.org/xtclang/src
ce9f6af0a new_ops
324946271 Comparison support
2a2118ef6 Prep for const generation
adece5bde Merge branch 'master' of https://bitbucket.org/xtclang/src into cp
75bd8f1e2 updating compiler to handle name resolution
f059ffb14 Multi-return native methods
2f3b8d834 Op-code serialization
494dcf4db Trivial
538463673 Trivial refactoring and simplification
b171382a3 The TestApp itself is in "core" for now
a7c021166 All tests work against compiled structures
fc1d6eb83 Merge branch 'master' of MacPro:Development/git/xvm
5f1cac265 Checkpoint after changing the call() API
f85d56650 updating compiler to handle name resolution
9cfa13c28 Checkpoint before changing the call() API
5fc53fd39 resolve names
3eda8b380 updating compiler to handle name resolution
3d86eecbe test1 works
d2801740d Refactoring of CommandLine and trivial fix in ConstPool
8ebc82877 Merge branch 'master' of MacPro:Development/git/xvm
e0558a75d name resolution
b0585e0eb adding parameter type support to constant pool
35fdfd0f7 Merge branch 'master' of https://bitbucket.org/xtclang/src
1b0f4f982 Compiles!
3c4354266 adding parameter type support to constant pool
8769c15c6 name resolution
e682c7da3 adding parameter type support to constant pool
53ed30352 ClassTemplate refactoring stage 1
be7574f8c adding parameter type support to constant pool
d5dc92f23 adding parameter type support to constant pool
55e5294a9 added annotation type support to constant pool
7b209d55e moved version label handling up to file structure
cd9f34437 added annotation type support to constant pool
257a8fb00 Merge branch 'master' of https://bitbucket.org/xtclang/src
6aa489ed4 added annotation type support to constant pool
99d9da9e1 trivial
54d727989 try-finally
04d048d37 Merge branch 'master' of /Users/cameron/Development/git/xvm
8b2d11bdc putting humpty back together
8bf03d0f4 try-finally
e9080714e Merge branch 'master' of https://bitbucket.org/xtclang/src
98890415d Prep for try-finally
fa6135a43 Merge branch 'master' of /Users/cameron/Development/git/xvm
48030f484 putting humpty back together
594a94e90 Merge branch 'master' of https://bitbucket.org/xtclang/src
d52fa1c1f Injection and RuntimeClock
52b05309d moved version label handling up to file structure
1dee97c1a Merge branch 'master' of https://bitbucket.org/xtclang/src
26e49bad8 putting humpty back together
7b6a4a2e7 putting humpty back together
99af05bf8 Caller's snapshot for the cross-service stack trace
9bd0cd8d1 putting humpty back together
09d8b224f Merge branch 'master' of https://bitbucket.org/xtclang/src
69bf3ed7e moved version label handling up to file structure
e27fde640 Merge branch 'master' of /Users/cameron/Development/git/xvm
4b5b67c80 putting humpty back together
c5aa2d2e7 Trivial cleanup
46f04664b Initial Timeout implementation
db7f064b2 moved version label handling up to file structure
3efca0fdf implementing packages importing modules moving version data from ModuleStructure to FileStructure
f84a9edf0 finished new version tree data structure
264f8cd6d Merge branch 'master' of https://bitbucket.org/xtclang/src
42c318a3b Introduced the FiberQueue class
79077781e new version tree data structure
7542567e5 Introduced the Fiber class
04608465a new version tree data structure
f1b4ca344 updating compilation phase 1 - module
0d828b3d3 Introduced reentrancy modes; native frame construction
4cb5a967e Removed the DEFERRABLE register style
7a481ece7 updating compilation phase 1 - module
a927a60d4 Merge branch 'master' of /Users/cameron/Development/git/xvm
c66d88088 updating compilation phase 1 - module
d0e82951d Merge branch 'master' of MacPro:Development/git/xvm
48a66f94f Tuple construction; SVAR and TVAR op-codes
347e42500 rebasing pkg/module structure onto class structure
260cb4857 Merge branch 'master' of /Users/cameron/Development/git/xvm
d901c61ff updating compilation phase 1 - module
0d2d406aa Merge branch 'master' of https://bitbucket.org/xtclang/src
97a17ab25 Blocking and exceptional return
3da306933 Merge branch 'master' of MacPro:Development/git/xvm
336584609 merging component creation for all types; adding error checking
6aa0ceb63 Merge branch 'master' of https://bitbucket.org/xtclang/src
49372a75b ConditionalTuple
72abaf593 updating compilation phase 1 - module
68561dde9 Merge branch 'master' of https://bitbucket.org/xtclang/src
273368f2c Merge branch 'master' of https://bitbucket.org/xtclang/src
2f6eda59c finishing adding logging support to ast node
5413faf1b Simple refactoring
78a18cbd7 slowly adding start/end locations to all ast nodes; working on stmts
19e08228a slowly adding start/end locations to all ast nodes; working on stmts
33457da52 slowly adding start/end locations to all ast nodes; just finished expressions
a98b72768 Tuples, conditions
2c6c35a88 adding logging support to ast node
1ca408e2e slowly adding start/end locations to all ast nodes
e47f377bf adding logging support to ast node
cd5a81122 slowly adding start/end locations to all ast nodes
020ecb21f adding logging support to ast node
2266b4ba3 working on compiler errors for phase 1
3cdeb0541 element doc
c37765ed1 fixing unit tests & whatever else i broke
b0b41b8d5 Merge branch 'master' of /Users/cameron/Development/git/xvm
f7b8e9519 compiler work - first phase
9366378fa Merge branch 'master' of https://bitbucket.org/xtclang/src
91a79d5d1 Introduced Runtime; minor improvements
db8984d8b Merge branch 'master' of /Users/cameron/Development/git/xvm
f3d846ace fixes
7919cfd97 Merge branch 'master' of https://bitbucket.org/xtclang/src
c50c6bd17 DaemonPool execution - all tests are working again
51cf79d86 Merge branch 'master' of /Users/cameron/Development/git/xvm
30d04bf9e Merge branch 'component'
2ed756a33 Merge branch 'master' of https://bitbucket.org/xtclang/src
b3dd0342c DaemonPool execution (part 2)
ffa864751 fixing unit tests & whatever else i broke
c7fb4be38 Merge branch 'component'
b9ac2019c Merge branch 'component'
99fa61ecf component branch
3143a1db5 Switched to demon pool (part 1)
ceeee2edc component branch
f568733eb partial commit of new Component structure
33cbf4664 component branch
ee25100ea component branch
edd4ce31b component branch
bba6fb0f4 trivial refactoring
4ef27dd2d component branch
6c3dca2bf component branch
c7a7e4564 tuple - part 1
e04baff31 component branch
439047228 Refs to arguments
2711809af partial commit of new Component structure
f1f27c208 component branch
a3d963459 Refs to array elements
cdb0fa4e7 Refs to array elements
f55ac6e38 changed IVar and INVar to allow r-values
fab320072 more arrays
e00e8be47  On branch component  Changes to be committed: 	modified:   src/org/xvm/asm/Component.java
b3703a9a0 component branch
76deb1d7c arrays
4fc252fd8 Merge branch 'master' of MacPro:Development/git/xvm
9e81a2409 partial commit of new Component structure
4f8089396 small correction to ClassTypeConstant registration
a9d6b0897 merged ClassTypeConstant w/ ParameterizedTypeConstant
64dc10d3f new type constant for a paremeterized class
e5a238b5d Vars as "deferrable" registers
280e4e243 further consolidation of property requests
59fad6c49 merging property request handling
a07ed77ac atomic properties
eb256afee Invoke - take the positive method id
c46f3a615 Async construction cleanup
1adb9237b Async construction
1b4dc08a9 Merge branch 'master' of https://bitbucket.org/xtclang/src
63c649d5a Got rid of return array on the frame (part 2)
645662232 refactoring assembler structures
b548a625c Merge branch 'master' of MacPro:Development/git/xvm
bbf762ec0 refactoring assembler structures
4912f2516 Got rid of return array on the frame (phase 1)
e45a69f32 Support for future continuations on the service
b73d41c2c lambda capture via binding
8e7f8f332 introducing "unresolved" constants
3f25eaaf0 whenComplete
7489d1a29 HANDLER/END_HANDLER
574d39d9b Logging
267780bd0 LGet, LSet, Exception info
d6218352d Merge branch 'master' of https://bitbucket.org/xtclang/src
794651830 Change for the "guard-end"
f5da590ee quick refactoring of constants out of the pool
add408766 dynamic ref, future ref
b6ddbb671 finishing up minor "version" details
39e0b9c58 Merge branch 'master' of https://bitbucket.org/xtclang/src
e919798da finishing up minor "version" details
e1b33f47f dynamic ref (step 2)
5190f189b Merge branch 'master' of MacPro:Development/git/xvm
05da49291 starting compiler second pass
776fd5382 dynamic ref (step 1)
553b3ebb5 Merge branch 'master' of MacPro:Development/git/xvm
648bb62cb compiler first pass - producing globally visible type names
487023f81 Corrected async set
de7c6acd3 Async get/set
69859975b Merge branch 'master' of MacPro:Development/git/xvm
496b51c11 adding conditionals support to parser
0b105baa3 Ref implementation
5a29dcb84 finished type conversion support
8a097dd18 added dump
2052dd2d3 parsing has passed the basic "can you parse the x module" test
696e2882d TestApp; Service.run() as an entry point
2ffc1c459 finished BNF
2029cdc8e finished expressions; starting on statements
9ad58be3c Merge branch 'master' of MacPro:Development/git/xvm
95ef083fc expression parsing - almost done. need to update type parsing for Tuple.x
070bc8f52 expression parsing - almost done. need to update type parsing for Tuple.x
9995b91c1 Introduced contextZero
228eb7f3a Introduced contextZero
968d4d323 Merge branch 'master' of https://bitbucket.org/xtclang/src
af7a7bae2 Invoke
caa149ea4 expression parsing
d9a10ee57 Merge branch 'master' of MacPro:Development/git/xvm
765a8ab1f mostly BNF work on expressions
89db674bc Converted all exception handling
c10c27acc Working TestService
c10f8749f some fixes to parser and .x files
90184a2c3 some fixes to parser and .x files
e9018ae50 Merge branch 'master' of https://bitbucket.org/xtclang/src
6501cafae some fixes to parser and .x files
1695708ae Service work
b2fa6b917 Merge branch 'master' of https://bitbucket.org/xtclang/src
24681ed27 finished initial implement of the "in between parsing"
4dec420d0 Method binding
25d102b73 Call ops refactoring
934a6317f starting to output .xtc file
3be2f9db3 Merge branch 'master' of https://bitbucket.org/xtclang/src
93dfd0e35 finished top level parsing of types (and now it works)
bbb9f6a51 finished top level parsing of types
5460c3dbd beginning of service work
1ed600371 Merge branch 'master' of https://bitbucket.org/xtclang/src
4573e58b6 polishing minor items on command line compiler tool
39d7b311a "super" call
9b318c60c  Changes to be committed: 	modified:   doc/x.docx 	modified:   src/org/xvm/compiler/CommandLine.java 	modified:   src/org/xvm/compiler/ErrorList.java 	modified:   src/org/xvm/compiler/Lexer.java 	modified:   src/org/xvm/compiler/Parser.java 	modified:   src/org/xvm/compiler/Token.java 	modified:   xsrc/system/Clock.x 	modified:   xsrc/system/Date.x 	new file:   xsrc/system/DateTime.x 	copied:     xsrc/system/Clock.x -> xsrc/system/Duration.x 	new file:   xsrc/system/Time.x 	new file:   xsrc/system/Timer.x 	modified:   xsrc/system/collections/Comparator.x
bafb03dcf Beginning of "super" call
9607ac395 bug fixes for lexer/parser
6c8822112 starting on Parser
81b3a1d6d A lot of refactoring
4120f77d3 Add and native get
00b92c491 Add and native get
8a55971d2 Merge branch 'master' of MacPro:Development/git/xvm
ace55ff7e Get method
b3fdd407c  Changes to be committed: 	modified:   src/org/xvm/compiler/Lexer.java 	modified:   src/org/xvm/compiler/Parser.java 	modified:   src/org/xvm/compiler/Token.java
5046442e9  Changes to be committed: 	renamed:    src/org/xvm/proto/op/Goto.java -> src/org/xvm/proto/op/GoTo.java
276146c19 starting on Parser and working hard on GOTO
de62e6b38 starting on Parser
afc7c26c2  Changes to be committed: 	new file:   src/org/xvm/proto/op/Goto.java
410b143bf Catch
2a230f897 starting back on compiler project; tokenization is now working
a9942ae3f Throw
c22a26466 after reviews of List (and thus Array) design and various Collections/Map work
cdcbb2344 reviewed Collections/Map work with Gene
f88ce6c4a Merge branch 'master' of https://bitbucket.org/xtclang/src
23818ecd5 wrapping up HashMap implementation, plus changes to Map and Collection interfaces, plus new Set interface
093f3d262 New, Get and Set op-codes
5a3320ffb wrapping up Map and Collection interface; reviewed with Gene
f7b0a43f8 added "values" property implementations to Map added default method implementations for Collection
e76bf67a9 minor updates to simplify method signatures
b50589bdc Stream is done, pending final reviews.
25eba1026 Stream mostly done; minor changes to other stuff from reviews with Gene
f7e6d0a54 quick push of half done work on Collection
403e0afe2 Merge branch 'master' of MacPro:Development/git/xvm
d61f60f0e quick push of half done work on Collection
236045048 Merge branch 'master' of https://bitbucket.org/xtclang/src
9e3fc8647 Hello world (cont)
22202f6e5 Collections sandbox
6df5fdbc2 Merge branch 'master' of MacPro:Development/git/xvm
4695108c7 quick push of half done work on Map
cdd816172 Hello world
d604705fd Merge branch 'master' of https://bitbucket.org/xtclang/src
07469cbbf First "print"
86e9a14a7 quick push of half done work on Map
594bbffc1 getting rid of Windows-style CR/LFs (no idea how the CRs got in there)
389627c1d starting on Map. also converted tabs to spaces (hence the large number of changes.)
fa5eaf8c8 working on Type stuff still. Class is kind-of done. Property and Method are probably next.
64d716f4e working on Type stuff still. Class is kind-of done. Property and Method are probably next.
a46d88879 Merge branch 'master' of https://bitbucket.org/xtclang/src
466781a4c Just a backup
5f592d2e9 working on Type, but pushing incremental updates for Gene to pick up
b4ea1e8ff working on Type, but pushing incremental updates for Gene to pick up
75a1e260b working on Type, but pushing incremental updates for Gene to pick up
1ce530763 Merge branch 'master' of MacPro:Development/git/xvm
2db1a396d working on Type, but pushing incremental updates for Gene to pick up
f74fcac1c Merge branch 'master' of https://bitbucket.org/xtclang/src
8a3ede2dd Just a backup
032fcc58e Merge branch 'master' of https://bitbucket.org/xtclang/src
ea2b154c4 tuple - definition
9ac51ce33 added keywords
d01c06307 added @ro
5b86e766b README.md edited online with Bitbucket
aa2271507 README.md edited online with Bitbucket
cada76acb README.md edited online with Bitbucket
0e5f19f3e README.md edited online with Bitbucket
379cb908e README.md edited online with Bitbucket
f00bc7e29 Enum code review etc.
d4314e507 Enum design moved in other minor updates
2dc5388f9  Changes to be committed: 	modified:   xsrc/system/CriticalSection.x 	modified:   xsrc/system/Service.x 	modified:   xsrc/system/Timeout.x
f8f11462b Merge branch 'master' of https://bitbucket.org/xtclang/src
42be0a118  Changes to be committed: 	modified:   xsrc/examples/Example.x 	new file:   xsrc/system/CriticalSection.x 	new file:   xsrc/system/Exception.x 	modified:   xsrc/system/Service.x 	new file:   xsrc/system/Timeout.x 	modified:   xsrc/system/annotations/FutureRef.x 	modified:   xsrc/system/collections/Array.x 	modified:   xsrc/system/module.x
5d9f37af4 Just a backup
b3c3c3e8b various updates - moved stuff to collections package - minor updates
9b64675f7 Merge branch 'master' of https://bitbucket.org/xtclang/src
c584391bd  Changes to be committed: 	modified:   xsrc/examples/Example.x 	modified:   xsrc/system/Ref.x 	modified:   xsrc/system/Service.x 	modified:   xsrc/system/annotations/AtomicIntNumber.x 	modified:   xsrc/system/annotations/Override.x 	modified:   xsrc/system/annotations/ReadOnly.x 	modified:   xsrc/system/annotations/SoftRef.x 	modified:   xsrc/system/annotations/WatchRef.x 	modified:   xsrc/system/annotations/WeakRef.x 	modified:   xsrc/system/module.x
233778c04 Added keywords
5674fe0fa Merge branch 'master' of https://bitbucket.org/xtclang/src
833b0b4d2  Changes to be committed: 	modified:   xsrc/system/annotations/FutureRef.x
5815b52ab added git as a vcs
7022a1241 added its to ignored files
c79705393 Added xsrc directory to the project
bc24b7b4a Fixing stupidity
03e0e1d8d IntelliJ 14 syntax support for Xtc
bac11877b Merge branch 'master' of https://bitbucket.org/xtclang/src
4fa4e2b2d  Changes to be committed: 	modified:   xsrc/system/annotations/FutureRef.x
9f2c23b56 Merge branch 'master' of https://bitbucket.org/xtclang/src
ec7d8e2c7  Changes to be committed: 	modified:   xsrc/system/annotations/FutureRef.x
e9485998c Merge branch 'master' of https://bitbucket.org/xtclang/src
a96053d4e  Changes to be committed: 	deleted:    xsrc/system/Future.x 	modified:   xsrc/system/Ref.x 	modified:   xsrc/system/annotations/FutureRef.x 	modified:   xsrc/system/module.x
cc001954b  Changes to be committed: 	modified:   xsrc/system/Future.x 	modified:   xsrc/system/Ref.x 	modified:   xsrc/system/annotations/FutureRef.x
d757262a8 Merge branch 'master' of https://bitbucket.org/xtclang/src
26288fc6f  Changes to be committed: 	modified:   xsrc/examples/Example.x 	new file:   xsrc/system/Future.x 	modified:   xsrc/system/Ref.x 	modified:   xsrc/system/annotations/FutureRef.x
49cc0ad29 Merge branch 'master' of https://bitbucket.org/xtclang/src
1bc98856f  Changes to be committed: 	modified:   xsrc/system/annotations/FutureRef.x
6bd00518b  Changes to be committed: 	modified:   xsrc/system/annotations/AtomicIntNumber.x
cc02dd9b2  Changes to be committed: 	modified:   xsrc/examples/Example.x 	modified:   xsrc/system/Ref.x 	deleted:    xsrc/system/RefQueue.x 	modified:   xsrc/system/Service.x 	deleted:    xsrc/system/WeakRef.x 	new file:   xsrc/system/annotations/AtomicIntNumber.x 	new file:   xsrc/system/annotations/AtomicRef.x 	new file:   xsrc/system/annotations/Automagic.x 	renamed:    xsrc/system/Future.x -> xsrc/system/annotations/FutureRef.x 	deleted:    xsrc/system/annotations/Lazy.x 	renamed:    xsrc/system/LazyRef.x -> xsrc/system/annotations/LazyRef.x 	new file:   xsrc/system/annotations/Override.x 	new file:   xsrc/system/annotations/ReadOnly.x 	renamed:    xsrc/system/SoftRef.x -> xsrc/system/annotations/SoftRef.x 	new file:   xsrc/system/annotations/WatchRef.x 	new file:   xsrc/system/annotations/WeakRef.x 	modified:   xsrc/system/module.x
0555e9143 Merge branch 'master' of https://bitbucket.org/xtclang/src
0a1195bc6  Changes to be committed: 	modified:   xsrc/examples/Example.x 	new file:   xsrc/system/Future.x 	modified:   xsrc/system/LazyRef.x 	modified:   xsrc/system/Ref.x 	modified:   xsrc/system/Service.x
3e3c156f7 Merge branch 'master' of MacPro:Development/git/xvm
d2f1df9f3 Added a short-circuited forEach
5827884bd  Changes to be committed: 	modified:   xsrc/system/Meta.x 	modified:   xsrc/system/Referent.x
0b82949e9 Merge branch 'master' of MacPro:Development/git/xvm
2ee225a2e removed hasNext
7c0324de8 Merge branch 'master' of https://bitbucket.org/xtclang/src
476b4d83f  Changes to be committed: 	modified:   xsrc/examples/Example.x 	modified:   xsrc/system/IntNumber.x 	modified:   xsrc/system/LazyRef.x 	modified:   xsrc/system/Ref.x 	new file:   xsrc/system/UncheckedInt.x
00ff7c753  Changes to be committed: 	modified:   xsrc/system/module.x
710bbed20  Changes to be committed: 	modified:   xsrc/examples/Example.x 	modified:   xsrc/examples/Example3.x 	modified:   xsrc/system/LazyRef.x 	modified:   xsrc/system/Method.x 	new file:   xsrc/system/RefQueue.x 	modified:   xsrc/system/WeakRef.x
29e2a1dc6 Iterator
e4aad2af5 Merge branch 'master' of https://bitbucket.org/xtclang/src
2a717e21f  Changes to be committed: 	modified:   doc/x.docx 	modified:   xsrc/examples/Example.x 	modified:   xsrc/system/Const.x 	new file:   xsrc/system/LazyRef.x 	modified:   xsrc/system/Ref.x 	new file:   xsrc/system/SoftRef.x 	modified:   xsrc/system/Struct.x 	modified:   xsrc/system/Tuple.x 	new file:   xsrc/system/WeakRef.x 	modified:   xsrc/system/module.x
6245a3507 trivial
ec7b0d237 typo
dd0bc3ab2  Changes to be committed: 	modified:   xsrc/examples/Example.x 	modified:   xsrc/system/Const.x 	new file:   xsrc/system/HashSet.x 	modified:   xsrc/system/Meta.x 	modified:   xsrc/system/Object.x 	modified:   xsrc/system/Ref.x 	modified:   xsrc/system/Referent.x 	new file:   xsrc/system/Set.x
7dbf63f8a  Changes to be committed: 	modified:   xsrc/system/Class.x 	modified:   xsrc/system/Const.x 	modified:   xsrc/system/Meta.x 	modified:   xsrc/system/Object.x 	modified:   xsrc/system/Ref.x 	new file:   xsrc/system/Referent.x 	modified:   xsrc/system/module.x
ada8bea43  Changes to be committed: 	modified:   xsrc/system/Tuple.x 	modified:   xsrc/system/module.x
cdabccf49  Changes to be committed: 	modified:   xsrc/system/Const.x 	new file:   xsrc/system/Hashable.x 	new file:   xsrc/system/Hasher.x 	modified:   xsrc/system/Meta.x 	new file:   xsrc/system/NaturalHasher.x 	modified:   xsrc/system/Object.x
21f3abe26  Changes to be committed: 	deleted:    xsrc/system/UniformIndex.x
30363286d  Changes to be committed: 	new file:   xsrc/system/Const.x 	modified:   xsrc/system/Meta.x 	modified:   xsrc/system/Object.x 	modified:   xsrc/system/Ref.x 	modified:   xsrc/system/Sequence.x 	new file:   xsrc/system/UniformIndex.x 	modified:   xsrc/system/module.x
070c84728  Changes to be committed: 	modified:   xsrc/system/Array.x 	modified:   xsrc/system/Bit.x 	modified:   xsrc/system/Boolean.x 	modified:   xsrc/system/Char.x 	modified:   xsrc/system/FPNumber.x 	modified:   xsrc/system/Int64.x 	modified:   xsrc/system/IntLiteral.x 	modified:   xsrc/system/Iterable.x 	modified:   xsrc/system/Iterator.x 	modified:   xsrc/system/Object.x 	modified:   xsrc/system/Ref.x 	modified:   xsrc/system/module.x
1d84ed44a  Changes to be committed: 	modified:   xsrc/system/module.x
af2bcf0b5  Changes to be committed: 	new file:   .gitignore
cbe90be6a  Changes to be committed: 	modified:   xsrc/system/Array.x 	modified:   xsrc/system/IntNumber.x 	modified:   xsrc/system/Nibble.x 	modified:   xsrc/system/Number.x
988a46618  Changes to be committed: 	modified:   xsrc/system/Boolean.x 	modified:   xsrc/system/Int64.x 	modified:   xsrc/system/IntLiteral.x 	modified:   xsrc/system/IntNumber.x 	modified:   xsrc/system/Iterable.x 	modified:   xsrc/system/Number.x 	modified:   xsrc/system/Sequence.x 	modified:   xsrc/system/String.x 	modified:   xsrc/system/UniformIndexed.x 	modified:   xsrc/system/module.x
66159e832  Changes to be committed: 	modified:   xsrc/system/Number.x
c4d75e44d  Changes to be committed: 	modified:   xsrc/system/IntLiteral.x 	modified:   xsrc/system/Number.x
fef919a38  Changes to be committed: 	modified:   xsrc/system/Char.x 	modified:   xsrc/system/IntLiteral.x 	new file:   xsrc/system/Nibble.x
304db69ac  Changes to be committed: 	new file:   xsrc/system/Array.x 	modified:   xsrc/system/Bit.x 	modified:   xsrc/system/IntNumber.x 	new file:   xsrc/system/NonUniformIndexed.x 	modified:   xsrc/system/Number.x 	new file:   xsrc/system/Sequence.x 	new file:   xsrc/system/Struct.x 	modified:   xsrc/system/Tuple.x 	new file:   xsrc/system/UniformIndexed.x 	modified:   xsrc/system/VarUInt.x 	modified:   xsrc/system/module.x
44a46f141  Changes to be committed: 	modified:   xsrc/system/Boolean.x 	modified:   xsrc/system/DecimalFPNumber.x 	modified:   xsrc/system/IntLiteral.x 	new file:   xsrc/system/Iterable.x 	new file:   xsrc/system/Iterator.x 	modified:   xsrc/system/VarInt.x 	modified:   xsrc/system/VarUInt.x 	modified:   xsrc/system/module.x
0b86625a2  Changes to be committed: 	modified:   xsrc/system/Bit.x 	modified:   xsrc/system/Boolean.x 	modified:   xsrc/system/IntNumber.x 	modified:   xsrc/system/Number.x
82556e8a7  Changes to be committed: 	new file:   xsrc/system/BinaryFPNumber.x 	modified:   xsrc/system/Bit.x 	new file:   xsrc/system/DecimalFPNumber.x 	modified:   xsrc/system/FPNumber.x 	modified:   xsrc/system/Int64.x 	modified:   xsrc/system/IntLiteral.x 	modified:   xsrc/system/IntNumber.x 	new file:   xsrc/system/UInt8.x 	new file:   xsrc/system/UIntNumber.x 	new file:   xsrc/system/VarInt.x 	new file:   xsrc/system/VarUInt.x 	modified:   xsrc/system/module.x
988562edd  Changes to be committed: 	modified:   doc/x-modules.docx 	modified:   xsrc/system/Boolean.x 	modified:   xsrc/system/IntLiteral.x 	modified:   xsrc/system/IntNumber.x 	renamed:    xsrc/system/Module.x -> xsrc/system/module.x
254b6d72d  Changes to be committed: 	new file:   xsrc/system/Char.x 	modified:   xsrc/system/IntNumber.x 	modified:   xsrc/system/Module.x 	modified:   xsrc/system/Object.x
44fa4e328  Changes to be committed: 	new file:   xsrc/system/Bit.x 	new file:   xsrc/system/Boolean.x 	renamed:    xsrc/system/Int.x -> xsrc/system/Int64.x 	new file:   xsrc/system/IntLiteral.x 	modified:   xsrc/system/Module.x 	modified:   xsrc/system/Number.x 	new file:   xsrc/system/String.x
e8c134b57  Changes to be committed: 	modified:   xsrc/system/Int.x 	modified:   xsrc/system/Number.x
7a94d73f5  Changes to be committed: 	new file:   xsrc/system/Int.x 	modified:   xsrc/system/IntNumber.x 	modified:   xsrc/system/Module.x
d42e41ab9  Changes to be committed: 	new file:   xsrc/system/IntNumber.x 	modified:   xsrc/system/Module.x
903b00df7  Changes to be committed: 	modified:   doc/x.docx 	modified:   doc/xvm-thoughts.txt 	new file:   src/org/xvm/runtime/Service.java 	modified:   xsrc/examples/Example.x 	new file:   xsrc/examples/asm.x 	new file:   xsrc/system/Clock.x 	deleted:    xsrc/system/Integer.x 	deleted:    xsrc/system/Integer32.x 	new file:   xsrc/system/Meta.x 	new file:   xsrc/system/Method.x 	modified:   xsrc/system/Module.x 	modified:   xsrc/system/Number.x 	modified:   xsrc/system/Object.x 	new file:   xsrc/system/Ref.x 	new file:   xsrc/system/Service.x 	modified:   xsrc/system/Type.x 	deleted:    xsrc/system/operator/OpAdd.x
b309597ad  Changes to be committed: 	new file:   doc/special_returns.docx 	modified:   xsrc/examples/Example.x 	modified:   xsrc/system/Module.x
dce642d36  Changes to be committed: 	modified:   tests/unit/org/xvm/compiler/LexerTest.java 	modified:   xsrc/implicit.x
ddf705458  Changes to be committed: 	modified:   xsrc/examples/Example.x 	modified:   xsrc/system/Module.x
e0b931224  Changes to be committed: 	modified:   xsrc/examples/Example.x 	modified:   xsrc/system/Module.x
a1c876991  Changes to be committed: 	renamed:    xsrc/system/Example.x -> xsrc/examples/Example.x 	renamed:    xsrc/system/Example2.x -> xsrc/examples/Example2.x 	renamed:    xsrc/system/Example3.x -> xsrc/examples/Example3.x 	renamed:    xsrc/system/Example4.x -> xsrc/examples/Example4.x 	deleted:    xsrc/system/Boolean.x 	deleted:    xsrc/system/Element.x 	deleted:    xsrc/system/Method.x 	modified:   xsrc/system/Module.x 	deleted:    xsrc/system/Nullable.x 	deleted:    xsrc/system/Ordered.x 	deleted:    xsrc/system/Package.x 	deleted:    xsrc/system/Property.x 	deleted:    xsrc/system/Ref.x 	deleted:    xsrc/system/Sign.x 	deleted:    xsrc/system/Value.x 	deleted:    xsrc/system/Variable.x
8a4c19847  Changes to be committed: 	modified:   doc/x.docx 	modified:   src/org/xvm/compiler/Parser.java 	modified:   src/org/xvm/compiler/Token.java 	modified:   xsrc/system/Example3.x
210b8728e  Changes to be committed: 	modified:   src/org/xvm/compiler/Token.java 	new file:   xsrc/system/Example4.x
1181d2151  Changes to be committed: 	new file:   src/org/xvm/compiler/CompilerException.java 	modified:   src/org/xvm/compiler/Lexer.java 	modified:   src/org/xvm/compiler/Parser.java 	modified:   src/org/xvm/compiler/Token.java
62b3729ba  Changes to be committed: 	modified:   src/org/xvm/asm/ConstantPool.java 	copied:     src/org/xvm/compiler/Parser.java -> src/org/xvm/compiler/Lexer.java 	modified:   src/org/xvm/compiler/Parser.java 	modified:   src/org/xvm/compiler/Source.java 	renamed:    tests/unit/org/xvm/compiler/ParserTest.java -> tests/unit/org/xvm/compiler/LexerTest.java 	modified:   tests/unit/org/xvm/compiler/SourceTest.java
ddeab2221  Changes to be committed: 	modified:   src/org/xvm/asm/ClassStructure.java 	modified:   src/org/xvm/asm/StructureContainer.java 	modified:   tests/unit/org/xvm/asm/FileStructureTest.java
272bdae4e  Changes to be committed: 	modified:   src/org/xvm/asm/ClassStructure.java 	modified:   src/org/xvm/asm/ConstantPool.java 	modified:   src/org/xvm/asm/XvmStructure.java 	modified:   src/org/xvm/util/ListMap.java 	modified:   tests/unit/org/xvm/asm/FileStructureTest.java 	modified:   xsrc/system/Example2.x
f5a61fb1c  Changes to be committed: 	modified:   src/org/xvm/asm/ClassStructure.java 	modified:   src/org/xvm/asm/Constant.java 	modified:   src/org/xvm/asm/ConstantPool.java 	modified:   src/org/xvm/asm/Constants.java 	modified:   src/org/xvm/asm/StructureContainer.java 	modified:   src/org/xvm/util/Handy.java 	modified:   xsrc/system/Example2.x
ee54d1971  Changes to be committed: 	modified:   src/org/xvm/asm/ClassStructure.java 	new file:   src/org/xvm/util/ListMap.java
a692ba805  Changes to be committed: 	modified:   src/org/xvm/asm/ClassStructure.java 	modified:   tests/unit/org/xvm/asm/FileStructureTest.java
81df2b719  Changes to be committed: 	modified:   doc/x.docx 	modified:   src/org/xvm/asm/Constant.java 	modified:   src/org/xvm/asm/ConstantPool.java 	modified:   src/org/xvm/asm/Constants.java 	modified:   src/org/xvm/asm/ModuleStructure.java 	modified:   src/org/xvm/asm/PackageStructure.java 	modified:   tests/unit/org/xvm/asm/FileStructureTest.java 	modified:   xsrc/implicit.x 	modified:   xsrc/system/Class.x 	modified:   xsrc/system/Example.x 	modified:   xsrc/system/Example3.x 	modified:   xsrc/system/Function.x 	modified:   xsrc/system/Method.x 	modified:   xsrc/system/Object.x 	modified:   xsrc/system/Ref.x
664e8bb0c  Changes to be committed: 	new file:   xsrc/system/Example2.x 	new file:   xsrc/system/Example3.x
7c9edbfa6 	modified:   doc/xvm-thoughts.txt 	modified:   prj/xvm.iws 	modified:   src/org/xvm/asm/Constant.java
300f14764  Changes to be committed: 	new file:   classes/org/xvm/compiler/Source_1.x 	modified:   prj/xvm.ipr 	modified:   prj/xvm.iws 	modified:   src/org/xvm/asm/Constant.java 	modified:   src/org/xvm/asm/ConstantPool.java 	modified:   src/org/xvm/asm/XvmStructure.java 	modified:   tests/unit/org/xvm/asm/FileStructureTest.java
d16018b35 initial project version II
5aa8b6216 initial project version
